	.cpu generic+fp+simd
	.file	"nf_app_dl_monitor.c"
	.text
.Ltext0:
	.cfi_sections	.debug_frame
#APP
	.irp	num,0,1,2,3,4,5,6,7,8,9,10,11,12,13,14,15,16,17,18,19,20,21,22,23,24,25,26,27,28,29,30
	.equ	__reg_num_x\num, \num
	.endr
	.equ	__reg_num_xzr, 31

	.macro	mrs_s, rt, sreg
	.inst	0xd5200000|(\sreg)|(__reg_num_\rt)
	.endm

	.macro	msr_s, sreg, rt
	.inst	0xd5000000|(\sreg)|(__reg_num_\rt)
	.endm

#NO_APP
	.align	2
	.type	dl_timer, %function
dl_timer:
.LFB3060:
	.file 1 "/mnt/disk/jenkins2/ci/workspace/chipset_component_FRD_b160_Open_Source/component_code/vendor/huawei/extra/build/build_script/austin_kernel_release/kernel/drivers/huawei_platform/net/hw_netfilter/nf_app_dl_monitor.c"
	.loc 1 309 0
	.cfi_startproc
.LVL0:
	stp	x29, x30, [sp, -64]!
	.cfi_def_cfa_offset 64
	.cfi_offset 29, -64
	.cfi_offset 30, -56
	add	x29, sp, 0
	.cfi_def_cfa_register 29
	stp	x21, x22, [sp,32]
	stp	x19, x20, [sp,16]
	str	x23, [sp,48]
	.cfi_offset 21, -32
	.cfi_offset 22, -24
	.cfi_offset 19, -48
	.cfi_offset 20, -40
	.cfi_offset 23, -16
	adrp	x21, .LANCHOR0
	.loc 1 313 0
	cbz	x0, .L11
.L2:
	.loc 1 326 0
	adrp	x1, jiffies
	add	x21, x21, :lo12:.LANCHOR0
	add	x3, x21, 40
	.loc 1 327 0
	mov	x0, x3
.LVL1:
	.loc 1 326 0
	ldr	x1, [x1,#:lo12:jiffies]
	add	x1, x1, 16384
	add	x1, x1, 1616
	str	x1, [x21,56]
	.loc 1 327 0
	bl	add_timer
.LVL2:
	.loc 1 328 0
	ldr	x23, [sp,48]
	.cfi_remember_state
	.cfi_restore 23
	ldp	x19, x20, [sp,16]
	.cfi_restore 20
	.cfi_restore 19
	ldp	x21, x22, [sp,32]
	.cfi_restore 22
	.cfi_restore 21
	ldp	x29, x30, [sp], 64
	.cfi_restore 30
	.cfi_restore 29
	.cfi_def_cfa 31, 0
	ret
.LVL3:
.L11:
	.cfi_restore_state
.LBB286:
.LBB287:
	.file 2 "/mnt/disk/jenkins2/ci/workspace/chipset_component_FRD_b160_Open_Source/component_code/vendor/huawei/extra/build/build_script/austin_kernel_release/kernel/include/linux/spinlock.h"
	.loc 2 317 0
	add	x22, x21, :lo12:.LANCHOR0
	mov	x0, x22
.LVL4:
.LBE287:
.LBE286:
.LBB289:
	.loc 1 315 0
	add	x22, x22, 24
.LBE289:
.LBB290:
.LBB288:
	.loc 2 317 0
	bl	_raw_spin_lock_bh
.LVL5:
.LBE288:
.LBE290:
.LBB291:
	.loc 1 315 0
	ldr	x20, [x22]
.LBE291:
	.loc 1 318 0
	adrp	x0, .LC0
	.loc 1 315 0 discriminator 1
	cmp	x20, x22
	.loc 1 318 0
	add	x23, x0, :lo12:.LC0
.LBB292:
	.loc 1 315 0
	ldr	x19, [x20]
.LBE292:
	.loc 1 315 0 is_stmt 0 discriminator 1
	bne	.L9
	b	.L6
.L7:
	.loc 1 315 0 discriminator 2
	mov	x19, x1
.L9:
	.loc 1 316 0 is_stmt 1
	bl	get_cur_time
.LVL6:
	ldr	x1, [x20,16]
	mov	x2, 54464
	movk	x2, 0x1, lsl 16
	sub	x0, x0, x1
	cmp	x0, x2
	bhi	.L12
.L4:
	.loc 1 315 0 discriminator 1
	cmp	x19, x22
.LBB293:
	.loc 1 315 0 is_stmt 0 discriminator 2
	ldr	x1, [x19]
	mov	x20, x19
.LBE293:
	.loc 1 315 0 discriminator 1
	bne	.L7
.L6:
.LBB294:
.LBB295:
	.loc 2 362 0 is_stmt 1
	add	x0, x21, :lo12:.LANCHOR0
	bl	_raw_spin_unlock_bh
.LVL7:
	b	.L2
.L12:
.LBE295:
.LBE294:
.LBB296:
.LBB297:
	.file 3 "/mnt/disk/jenkins2/ci/workspace/chipset_component_FRD_b160_Open_Source/component_code/vendor/huawei/extra/build/build_script/austin_kernel_release/kernel/include/linux/list.h"
	.loc 3 107 0
	ldr	x4, [x20]
	.loc 3 108 0
	mov	x1, 256
	.loc 3 107 0
	ldr	x2, [x20,8]
	.loc 3 108 0
	movk	x1, 0xdead, lsl 48
	.loc 3 109 0
	mov	x3, 512
.LBE297:
.LBE296:
	.loc 1 318 0
	mov	x0, x23
.LBB304:
.LBB302:
.LBB298:
.LBB299:
	.loc 3 89 0
	str	x2, [x4,8]
.LBE299:
.LBE298:
	.loc 3 109 0
	movk	x3, 0xdead, lsl 48
.LBB301:
.LBB300:
	.loc 3 90 0
	str	x4, [x2]
.LBE300:
.LBE301:
	.loc 3 108 0
	str	x1, [x20]
.LBE302:
.LBE304:
	.loc 1 318 0
	ldr	x2, [x20,128]
	ldr	w1, [x20,112]
.LBB305:
.LBB303:
	.loc 3 109 0
	str	x3, [x20,8]
.LBE303:
.LBE305:
	.loc 1 318 0
	bl	printk
.LVL8:
.LBB306:
.LBB307:
	.loc 1 272 0
	ldr	x0, [x20,128]
	bl	kfree
.LVL9:
	.loc 1 273 0
	mov	x0, x20
	bl	kfree
.LVL10:
	b	.L4
.LBE307:
.LBE306:
	.cfi_endproc
.LFE3060:
	.size	dl_timer, .-dl_timer
	.align	2
	.type	clear_appdl_rule.part.0, %function
clear_appdl_rule.part.0:
.LFB3068:
	.loc 1 127 0
	.cfi_startproc
	stp	x29, x30, [sp, -48]!
	.cfi_def_cfa_offset 48
	.cfi_offset 29, -48
	.cfi_offset 30, -40
	.loc 1 137 0
	adrp	x0, .LC1
	.loc 1 127 0
	add	x29, sp, 0
	.cfi_def_cfa_register 29
	stp	x19, x20, [sp,16]
	.cfi_offset 19, -32
	.cfi_offset 20, -24
	adrp	x20, .LANCHOR1
	.loc 1 137 0
	add	x0, x0, :lo12:.LC1
	.loc 1 127 0
	stp	x21, x22, [sp,32]
	.cfi_offset 21, -16
	.cfi_offset 22, -8
	add	x20, x20, :lo12:.LANCHOR1
	adrp	x21, .LANCHOR0
	add	x20, x20, 1912
	add	x21, x21, :lo12:.LANCHOR0
	add	x21, x21, 120
	add	x22, x20, 4096
	.loc 1 137 0
	bl	printk
.LVL11:
.L15:
.LBB308:
.LBB309:
	.loc 2 317 0
	mov	x0, x21
	bl	_raw_spin_lock_bh
.LVL12:
.LBE309:
.LBE308:
.LBB310:
	.loc 1 140 0
	ldr	x1, [x20]
.LBE310:
	.loc 1 140 0 is_stmt 0 discriminator 1
	cmp	x1, x20
.LBB311:
	.loc 1 140 0
	ldr	x19, [x1]
.LBE311:
	.loc 1 140 0 discriminator 1
	beq	.L18
.L19:
.LBB312:
.LBB313:
	.loc 3 107 0 is_stmt 1
	ldr	x0, [x1,8]
	.loc 3 108 0
	mov	x3, 256
.LBB314:
.LBB315:
	.loc 3 89 0
	str	x0, [x19,8]
.LBE315:
.LBE314:
	.loc 3 109 0
	mov	x2, 512
	.loc 3 108 0
	movk	x3, 0xdead, lsl 48
	.loc 3 109 0
	movk	x2, 0xdead, lsl 48
.LBB317:
.LBB316:
	.loc 3 90 0
	str	x19, [x0]
.LBE316:
.LBE317:
.LBE313:
.LBE312:
	.loc 1 142 0
	mov	x0, x1
.LBB319:
.LBB318:
	.loc 3 108 0
	str	x3, [x1]
	.loc 3 109 0
	str	x2, [x1,8]
.LBE318:
.LBE319:
	.loc 1 142 0
	bl	kfree
.LVL13:
	.loc 1 140 0 discriminator 1
	cmp	x19, x20
	mov	x1, x19
	.loc 1 140 0 is_stmt 0 discriminator 3
	ldr	x19, [x19]
	.loc 1 140 0 discriminator 1
	bne	.L19
.L18:
.LBB320:
.LBB321:
	.loc 2 362 0 is_stmt 1
	mov	x0, x21
	add	x20, x20, 16
	add	x21, x21, 24
	bl	_raw_spin_unlock_bh
.LVL14:
.LBE321:
.LBE320:
	.loc 1 138 0 discriminator 1
	cmp	x20, x22
	bne	.L15
	.loc 1 146 0
	ldp	x19, x20, [sp,16]
	.cfi_restore 20
	.cfi_restore 19
	ldp	x21, x22, [sp,32]
	.cfi_restore 22
	.cfi_restore 21
	ldp	x29, x30, [sp], 48
	.cfi_restore 30
	.cfi_restore 29
	.cfi_def_cfa 31, 0
	ret
	.cfi_endproc
.LFE3068:
	.size	clear_appdl_rule.part.0, .-clear_appdl_rule.part.0
	.align	2
	.global	add_appdl_uid
	.type	add_appdl_uid, %function
add_appdl_uid:
.LFB3048:
	.loc 1 38 0
	.cfi_startproc
.LVL15:
	stp	x29, x30, [sp, -80]!
	.cfi_def_cfa_offset 80
	.cfi_offset 29, -80
	.cfi_offset 30, -72
	add	x29, sp, 0
	.cfi_def_cfa_register 29
	stp	x19, x20, [sp,16]
	stp	x21, x22, [sp,32]
	str	x23, [sp,48]
	.cfi_offset 19, -64
	.cfi_offset 20, -56
	.cfi_offset 21, -48
	.cfi_offset 22, -40
	.cfi_offset 23, -32
	.loc 1 38 0
	mov	w19, w0
	.loc 1 40 0
	bl	get_hash_id
.LVL16:
	.loc 1 42 0
	cmp	w0, 255
	.loc 1 40 0
	mov	w1, w0
.LVL17:
	.loc 1 42 0
	bhi	.L38
.LVL18:
.LBB322:
.LBB323:
	.loc 2 317 0
	uxtw	x22, w0
.LVL19:
	adrp	x0, .LANCHOR0
	lsl	x21, x22, 5
	add	x0, x0, :lo12:.LANCHOR0
	add	x0, x0, 120
	sub	x21, x21, x22, lsl 3
	add	x21, x0, x21
	str	x1, [x29,72]
	mov	x0, x21
.LBE323:
.LBE322:
.LBB325:
	.loc 1 47 0
	adrp	x23, .LANCHOR1
.LBE325:
.LBB326:
.LBB324:
	.loc 2 317 0
	bl	_raw_spin_lock_bh
.LVL20:
.LBE324:
.LBE326:
.LBB327:
	.loc 1 47 0
	add	x0, x23, :lo12:.LANCHOR1
	lsl	x2, x22, 4
	add	x0, x0, 1912
.LBE327:
	.loc 1 47 0 is_stmt 0 discriminator 1
	ldr	x1, [x29,72]
.LVL21:
.LBB328:
	.loc 1 47 0
	add	x20, x0, x2
	ldr	x0, [x0,x2]
.LVL22:
.LBE328:
	.loc 1 47 0 discriminator 1
	cmp	x0, x20
	bne	.L31
	b	.L27
.L30:
.LBB329:
	.loc 1 47 0 discriminator 2
	ldr	x0, [x0]
.LBE329:
	.loc 1 47 0 discriminator 1
	cmp	x0, x20
	beq	.L27
.L31:
	.loc 1 48 0 is_stmt 1
	ldr	w2, [x0,16]
	cmp	w2, w19
	bne	.L30
	.loc 1 49 0
	adrp	x0, .LC3
.LVL23:
	mov	w2, w19
	add	x0, x0, :lo12:.LC3
	bl	printk
.LVL24:
.LBB330:
.LBB331:
	.loc 2 362 0
	mov	x0, x21
	bl	_raw_spin_unlock_bh
.LVL25:
.LBE331:
.LBE330:
	.loc 1 61 0
	ldr	x23, [sp,48]
	.cfi_remember_state
	.cfi_restore 23
	ldp	x19, x20, [sp,16]
	.cfi_restore 20
	.cfi_restore 19
.LVL26:
	ldp	x21, x22, [sp,32]
	.cfi_restore 22
	.cfi_restore 21
	ldp	x29, x30, [sp], 80
	.cfi_restore 30
	.cfi_restore 29
	.cfi_def_cfa 31, 0
	ret
.LVL27:
.L27:
	.cfi_restore_state
	.loc 1 54 0
	adrp	x0, .LC4
.LVL28:
	mov	w2, w19
	add	x0, x0, :lo12:.LC4
	bl	printk
.LVL29:
.LBB332:
.LBB333:
	.file 4 "/mnt/disk/jenkins2/ci/workspace/chipset_component_FRD_b160_Open_Source/component_code/vendor/huawei/extra/build/build_script/austin_kernel_release/kernel/include/linux/slab.h"
	.loc 4 430 0
	adrp	x0, kmalloc_caches+48
	mov	w1, 32
	mov	x2, 24
	ldr	x0, [x0,#:lo12:kmalloc_caches+48]
	bl	kmem_cache_alloc_trace
.LVL30:
.LBE333:
.LBE332:
	.loc 1 56 0
	cbz	x0, .L32
.LBB334:
.LBB335:
	.loc 3 63 0
	add	x23, x23, :lo12:.LANCHOR1
.LVL31:
	lsl	x22, x22, 4
.LVL32:
	add	x23, x23, 1912
.LBE335:
.LBE334:
	.loc 1 57 0
	str	w19, [x0,16]
.LBB339:
.LBB338:
	.loc 3 63 0
	ldr	x1, [x23,x22]
.LBB336:
.LBB337:
	.loc 3 42 0
	str	x0, [x1,8]
	.loc 3 43 0
	str	x1, [x0]
	.loc 3 44 0
	str	x20, [x0,8]
	.loc 3 45 0
	str	x0, [x23,x22]
.L32:
.LBE337:
.LBE336:
.LBE338:
.LBE339:
.LBB340:
.LBB341:
	.loc 2 362 0
	mov	x0, x21
	bl	_raw_spin_unlock_bh
.LVL33:
.LBE341:
.LBE340:
	.loc 1 61 0
	ldr	x23, [sp,48]
	.cfi_remember_state
	.cfi_restore 23
	ldp	x19, x20, [sp,16]
	.cfi_restore 19
	.cfi_restore 20
.LVL34:
	ldp	x21, x22, [sp,32]
	.cfi_restore 21
	.cfi_restore 22
	ldp	x29, x30, [sp], 80
	.cfi_restore 29
	.cfi_restore 30
	.cfi_def_cfa 31, 0
	ret
.LVL35:
.L38:
	.cfi_restore_state
	.loc 1 43 0
	adrp	x0, .LC2
	add	x0, x0, :lo12:.LC2
	bl	printk
.LVL36:
	.loc 1 61 0
	ldr	x23, [sp,48]
	.cfi_restore 23
	ldp	x19, x20, [sp,16]
	.cfi_restore 19
	.cfi_restore 20
.LVL37:
	ldp	x21, x22, [sp,32]
	.cfi_restore 21
	.cfi_restore 22
	ldp	x29, x30, [sp], 80
	.cfi_restore 29
	.cfi_restore 30
	.cfi_def_cfa 31, 0
	ret
	.cfi_endproc
.LFE3048:
	.size	add_appdl_uid, .-add_appdl_uid
	.align	2
	.global	clear_appdl_uid
	.type	clear_appdl_uid, %function
clear_appdl_uid:
.LFB3049:
	.loc 1 64 0
	.cfi_startproc
.LVL38:
	stp	x29, x30, [sp, -48]!
	.cfi_def_cfa_offset 48
	.cfi_offset 29, -48
	.cfi_offset 30, -40
	add	x29, sp, 0
	.cfi_def_cfa_register 29
	stp	x19, x20, [sp,16]
	str	x21, [sp,32]
	.cfi_offset 19, -32
	.cfi_offset 20, -24
	.cfi_offset 21, -16
	.loc 1 64 0
	mov	w20, w0
	.loc 1 66 0
	bl	get_hash_id
.LVL39:
	.loc 1 68 0
	cmp	w0, 255
	bhi	.L49
.LBB342:
.LBB343:
	.loc 2 317 0
	uxtw	x19, w0
.LVL40:
	adrp	x21, .LANCHOR0
	lsl	x0, x19, 5
	add	x21, x21, :lo12:.LANCHOR0
	sub	x0, x0, x19, lsl 3
	add	x21, x21, 120
	add	x21, x21, x0
.LBE343:
.LBE342:
.LBB345:
	.loc 1 73 0
	lsl	x19, x19, 4
.LVL41:
.LBE345:
.LBB346:
.LBB344:
	.loc 2 317 0
	mov	x0, x21
	bl	_raw_spin_lock_bh
.LVL42:
.LBE344:
.LBE346:
.LBB347:
	.loc 1 73 0
	adrp	x0, .LANCHOR1
	add	x0, x0, :lo12:.LANCHOR1
	add	x0, x0, 1912
	add	x2, x0, x19
	ldr	x19, [x0,x19]
.LVL43:
.LBE347:
	.loc 1 73 0 is_stmt 0 discriminator 1
	cmp	x19, x2
	beq	.L42
.L46:
	.loc 1 74 0 is_stmt 1
	ldr	w0, [x19,16]
	cmp	w0, w20
	beq	.L50
.LBB348:
	.loc 1 73 0 discriminator 2
	ldr	x19, [x19]
.LBE348:
	.loc 1 73 0 is_stmt 0 discriminator 1
	cmp	x19, x2
	bne	.L46
.L42:
.LBB349:
.LBB350:
	.loc 2 362 0 is_stmt 1
	mov	x0, x21
	bl	_raw_spin_unlock_bh
.LVL44:
.L39:
.LBE350:
.LBE349:
	.loc 1 83 0
	ldp	x19, x20, [sp,16]
	.cfi_remember_state
	.cfi_restore 20
	.cfi_restore 19
.LVL45:
	ldr	x21, [sp,32]
	.cfi_restore 21
	ldp	x29, x30, [sp], 48
	.cfi_restore 30
	.cfi_restore 29
	.cfi_def_cfa 31, 0
	ret
.LVL46:
.L50:
	.cfi_restore_state
	.loc 1 75 0
	adrp	x0, .LC6
	mov	w1, w20
	add	x0, x0, :lo12:.LC6
	bl	printk
.LVL47:
.LBB351:
.LBB352:
	.loc 3 107 0
	ldr	x3, [x19]
	.loc 3 108 0
	mov	x2, 256
	.loc 3 107 0
	ldr	x0, [x19,8]
	.loc 3 109 0
	mov	x1, 512
	.loc 3 108 0
	movk	x2, 0xdead, lsl 48
	.loc 3 109 0
	movk	x1, 0xdead, lsl 48
.LBB353:
.LBB354:
	.loc 3 89 0
	str	x0, [x3,8]
	.loc 3 90 0
	str	x3, [x0]
.LBE354:
.LBE353:
.LBE352:
.LBE351:
.LBB356:
.LBB357:
	.loc 2 362 0
	mov	x0, x21
.LBE357:
.LBE356:
.LBB359:
.LBB355:
	.loc 3 108 0
	str	x2, [x19]
	.loc 3 109 0
	str	x1, [x19,8]
.LBE355:
.LBE359:
.LBB360:
.LBB358:
	.loc 2 362 0
	bl	_raw_spin_unlock_bh
.LVL48:
.LBE358:
.LBE360:
	.loc 1 78 0
	mov	x0, x19
	bl	kfree
.LVL49:
	.loc 1 79 0
	b	.L39
.LVL50:
.L49:
	.loc 1 69 0
	mov	w1, w0
	adrp	x0, .LC5
.LVL51:
	add	x0, x0, :lo12:.LC5
	bl	printk
.LVL52:
	.loc 1 70 0
	b	.L39
	.cfi_endproc
.LFE3049:
	.size	clear_appdl_uid, .-clear_appdl_uid
	.align	2
	.global	add_appdl_rule
	.type	add_appdl_rule, %function
add_appdl_rule:
.LFB3050:
	.loc 1 86 0
	.cfi_startproc
.LVL53:
	stp	x29, x30, [sp, -48]!
	.cfi_def_cfa_offset 48
	.cfi_offset 29, -48
	.cfi_offset 30, -40
	uxtb	w1, w1
	add	x29, sp, 0
	.cfi_def_cfa_register 29
	str	x19, [sp,16]
	.cfi_offset 19, -32
	.loc 1 86 0
	mov	x19, x0
	.loc 1 93 0
	str	x0, [x29,40]
.LVL54:
	.loc 1 94 0
	cbz	w1, .L63
	b	.L64
.LVL55:
.L59:
	.loc 1 97 0
	mov	w1, 59
.LVL56:
	mov	x0, x19
	bl	strchr
.LVL57:
	mov	x3, x0
	str	x3, [x29,40]
	.loc 1 99 0
	add	x1, x29, 40
	mov	x0, x19
	mov	w2, 10
	.loc 1 98 0
	cbz	x3, .L51
	.loc 1 99 0
	bl	simple_strtoull
.LVL58:
	.loc 1 100 0
	bl	add_appdl_uid
.LVL59:
	.loc 1 101 0
	ldr	x0, [x29,40]
	add	x19, x0, 1
.LVL60:
.L63:
	.loc 1 96 0
	ldrb	w0, [x0]
	cbnz	w0, .L59
.L51:
	.loc 1 106 0
	ldr	x19, [sp,16]
	.cfi_remember_state
	.cfi_restore 19
.LVL61:
	ldp	x29, x30, [sp], 48
	.cfi_restore 30
	.cfi_restore 29
	.cfi_def_cfa 31, 0
	ret
.LVL62:
.L64:
	.cfi_restore_state
.LBB361:
.LBB362:
	bl	clear_appdl_rule.part.0
.LVL63:
	ldr	x0, [x29,40]
	b	.L63
.LBE362:
.LBE361:
	.cfi_endproc
.LFE3050:
	.size	add_appdl_rule, .-add_appdl_rule
	.align	2
	.global	clear_appdl_rule_string
	.type	clear_appdl_rule_string, %function
clear_appdl_rule_string:
.LFB3051:
	.loc 1 109 0
	.cfi_startproc
.LVL64:
	stp	x29, x30, [sp, -48]!
	.cfi_def_cfa_offset 48
	.cfi_offset 29, -48
	.cfi_offset 30, -40
	.loc 1 117 0
	mov	x2, x0
	.loc 1 109 0
	add	x29, sp, 0
	.cfi_def_cfa_register 29
	stp	x19, x20, [sp,16]
	.cfi_offset 19, -32
	.cfi_offset 20, -24
	.loc 1 116 0
	add	x20, x29, 48
	.loc 1 109 0
	mov	x19, x0
	.loc 1 116 0
	str	x0, [x20,-8]!
.LVL65:
.L66:
	.loc 1 118 0
	mov	x0, x19
	mov	w1, 59
	.loc 1 117 0
	cbz	x2, .L65
	.loc 1 117 0 is_stmt 0 discriminator 1
	ldrb	w2, [x2]
	cbz	w2, .L65
	.loc 1 118 0 is_stmt 1
	bl	strchr
.LVL66:
	str	x0, [x29,40]
.LVL67:
	.loc 1 119 0
	cbnz	x0, .L75
.L65:
	.loc 1 125 0
	ldp	x19, x20, [sp,16]
	.cfi_remember_state
	.cfi_restore 20
	.cfi_restore 19
.LVL68:
	ldp	x29, x30, [sp], 48
	.cfi_restore 30
	.cfi_restore 29
	.cfi_def_cfa 31, 0
	ret
.LVL69:
.L75:
	.cfi_restore_state
	.loc 1 120 0
	mov	w2, 10
	mov	x0, x19
	mov	x1, x20
	bl	simple_strtoull
.LVL70:
	.loc 1 121 0
	bl	clear_appdl_uid
.LVL71:
	.loc 1 122 0
	ldr	x2, [x29,40]
	add	x19, x2, 1
	b	.L66
	.cfi_endproc
.LFE3051:
	.size	clear_appdl_rule_string, .-clear_appdl_rule_string
	.align	2
	.global	clear_appdl_rule
	.type	clear_appdl_rule, %function
clear_appdl_rule:
.LFB3052:
	.loc 1 128 0
	.cfi_startproc
.LVL72:
	stp	x29, x30, [sp, -16]!
	.cfi_def_cfa_offset 16
	.cfi_offset 29, -16
	.cfi_offset 30, -8
	add	x29, sp, 0
	.cfi_def_cfa_register 29
	.loc 1 133 0
	cbnz	w0, .L77
	.loc 1 134 0
	mov	x0, x1
.LVL73:
	bl	clear_appdl_rule_string
.LVL74:
.L76:
	.loc 1 146 0
	ldp	x29, x30, [sp], 16
	.cfi_remember_state
	.cfi_restore 30
	.cfi_restore 29
	.cfi_def_cfa 31, 0
	ret
.LVL75:
.L77:
	.cfi_restore_state
	bl	clear_appdl_rule.part.0
.LVL76:
	b	.L76
	.cfi_endproc
.LFE3052:
	.size	clear_appdl_rule, .-clear_appdl_rule
	.align	2
	.global	output_appdl_rule
	.type	output_appdl_rule, %function
output_appdl_rule:
.LFB3053:
	.loc 1 149 0
	.cfi_startproc
	stp	x29, x30, [sp, -64]!
	.cfi_def_cfa_offset 64
	.cfi_offset 29, -64
	.cfi_offset 30, -56
	.loc 1 153 0
	adrp	x0, .LC7
	.loc 1 149 0
	add	x29, sp, 0
	.cfi_def_cfa_register 29
	.loc 1 153 0
	add	x0, x0, :lo12:.LC7
	.loc 1 149 0
	stp	x19, x20, [sp,16]
	.cfi_offset 19, -48
	.cfi_offset 20, -40
	adrp	x19, .LANCHOR1
	str	x23, [sp,48]
	stp	x21, x22, [sp,32]
	.cfi_offset 23, -16
	.cfi_offset 21, -32
	.cfi_offset 22, -24
	add	x19, x19, :lo12:.LANCHOR1
	.loc 1 153 0
	bl	printk
.LVL77:
	adrp	x20, .LANCHOR0
	add	x19, x19, 1912
	add	x20, x20, :lo12:.LANCHOR0
	.loc 1 157 0
	adrp	x0, .LC8
	add	x20, x20, 120
	add	x22, x19, 4096
	add	x23, x0, :lo12:.LC8
.LVL78:
.L81:
.LBB363:
.LBB364:
	.loc 2 317 0
	mov	x0, x20
	bl	_raw_spin_lock_bh
.LVL79:
.LBE364:
.LBE363:
.LBB365:
	.loc 1 156 0
	ldr	x21, [x19]
.LBE365:
	.loc 1 156 0 is_stmt 0 discriminator 1
	cmp	x21, x19
	bne	.L83
.L84:
.LBB366:
.LBB367:
	.loc 2 362 0 is_stmt 1
	mov	x0, x20
	add	x19, x19, 16
	add	x20, x20, 24
	bl	_raw_spin_unlock_bh
.LVL80:
.LBE367:
.LBE366:
	.loc 1 154 0 discriminator 1
	cmp	x19, x22
	bne	.L81
	.loc 1 162 0
	adrp	x0, .LC9
	add	x0, x0, :lo12:.LC9
	bl	printk
.LVL81:
	.loc 1 164 0
	ldr	x23, [sp,48]
	.cfi_remember_state
	.cfi_restore 23
	ldp	x19, x20, [sp,16]
	.cfi_restore 20
	.cfi_restore 19
	ldp	x21, x22, [sp,32]
	.cfi_restore 22
	.cfi_restore 21
.LVL82:
	ldp	x29, x30, [sp], 64
	.cfi_restore 30
	.cfi_restore 29
	.cfi_def_cfa 31, 0
	ret
.LVL83:
.L83:
	.cfi_restore_state
	.loc 1 157 0
	ldr	w1, [x21,16]
	mov	x0, x23
	bl	printk
.LVL84:
.LBB368:
	.loc 1 156 0 discriminator 3
	ldr	x21, [x21]
.LBE368:
	.loc 1 156 0 is_stmt 0 discriminator 1
	cmp	x21, x19
	beq	.L84
	b	.L83
	.cfi_endproc
.LFE3053:
	.size	output_appdl_rule, .-output_appdl_rule
	.align	2
	.global	match_appdl_uid
	.type	match_appdl_uid, %function
match_appdl_uid:
.LFB3054:
	.loc 1 167 0 is_stmt 1
	.cfi_startproc
.LVL85:
	stp	x29, x30, [sp, -48]!
	.cfi_def_cfa_offset 48
	.cfi_offset 29, -48
	.cfi_offset 30, -40
	add	x29, sp, 0
	.cfi_def_cfa_register 29
	stp	x19, x20, [sp,16]
	str	x21, [sp,32]
	.cfi_offset 19, -32
	.cfi_offset 20, -24
	.cfi_offset 21, -16
	.loc 1 167 0
	mov	w19, w0
	.loc 1 169 0
	bl	get_hash_id
.LVL86:
	.loc 1 171 0
	cmp	w0, 255
	bhi	.L99
.LBB369:
.LBB370:
	.loc 2 317 0
	uxtw	x20, w0
.LVL87:
	adrp	x21, .LANCHOR0
	lsl	x0, x20, 5
	add	x21, x21, :lo12:.LANCHOR0
	sub	x0, x0, x20, lsl 3
	add	x21, x21, 120
	add	x21, x21, x0
.LBE370:
.LBE369:
.LBB372:
	.loc 1 176 0
	lsl	x20, x20, 4
.LVL88:
.LBE372:
.LBB373:
.LBB371:
	.loc 2 317 0
	mov	x0, x21
	bl	_raw_spin_lock_bh
.LVL89:
.LBE371:
.LBE373:
.LBB374:
	.loc 1 176 0
	adrp	x0, .LANCHOR1
	add	x0, x0, :lo12:.LANCHOR1
	add	x0, x0, 1912
	add	x2, x0, x20
	ldr	x0, [x0,x20]
.LVL90:
.LBE374:
	.loc 1 176 0 is_stmt 0 discriminator 1
	cmp	x0, x2
	bne	.L96
	b	.L92
.L95:
.LBB375:
	.loc 1 176 0 discriminator 2
	ldr	x0, [x0]
.LBE375:
	.loc 1 176 0 discriminator 1
	cmp	x0, x2
	beq	.L92
.L96:
	.loc 1 177 0 is_stmt 1
	ldr	w1, [x0,16]
	cmp	w1, w19
	bne	.L95
.LBB376:
.LBB377:
	.loc 2 362 0
	mov	x0, x21
.LVL91:
	bl	_raw_spin_unlock_bh
.LVL92:
.LBE377:
.LBE376:
	.loc 1 184 0
	ldr	x21, [sp,32]
	.cfi_remember_state
	.cfi_restore 21
	.loc 1 179 0
	mov	w0, 1
	.loc 1 184 0
	ldp	x19, x20, [sp,16]
	.cfi_restore 19
	.cfi_restore 20
.LVL93:
	ldp	x29, x30, [sp], 48
	.cfi_restore 29
	.cfi_restore 30
	.cfi_def_cfa 31, 0
	ret
.LVL94:
.L92:
	.cfi_restore_state
.LBB378:
.LBB379:
	.loc 2 362 0
	mov	x0, x21
.LVL95:
	bl	_raw_spin_unlock_bh
.LVL96:
.LBE379:
.LBE378:
	.loc 1 183 0
	mov	w0, 0
.L91:
	.loc 1 184 0
	ldp	x19, x20, [sp,16]
	.cfi_remember_state
	.cfi_restore 20
	.cfi_restore 19
.LVL97:
	ldr	x21, [sp,32]
	.cfi_restore 21
	ldp	x29, x30, [sp], 48
	.cfi_restore 30
	.cfi_restore 29
	.cfi_def_cfa 31, 0
	ret
.LVL98:
.L99:
	.cfi_restore_state
	.loc 1 172 0
	mov	w1, w0
	adrp	x0, .LC10
.LVL99:
	add	x0, x0, :lo12:.LC10
	bl	printk
.LVL100:
	.loc 1 173 0
	mov	w0, 0
	b	.L91
	.cfi_endproc
.LFE3054:
	.size	match_appdl_uid, .-match_appdl_uid
	.align	2
	.global	match_appdl_url
	.type	match_appdl_url, %function
match_appdl_url:
.LFB3055:
	.loc 1 187 0
	.cfi_startproc
.LVL101:
	stp	x29, x30, [sp, -32]!
	.cfi_def_cfa_offset 32
	.cfi_offset 29, -32
	.cfi_offset 30, -24
	add	x29, sp, 0
	.cfi_def_cfa_register 29
	stp	x19, x20, [sp,16]
	.cfi_offset 19, -16
	.cfi_offset 20, -8
	.loc 1 189 0
	bl	get_url_path
.LVL102:
	mov	x19, x0
.LVL103:
	.loc 1 191 0
	cbz	x0, .L103
	.loc 1 192 0
	bl	strlen
.LVL104:
	mov	x2, x0
	.loc 1 192 0 is_stmt 0 discriminator 1
	adrp	x1, .LC11
	mov	x0, x19
	add	x1, x1, :lo12:.LC11
	.loc 1 188 0 is_stmt 1
	mov	w20, 0
.LVL105:
	.loc 1 192 0 discriminator 1
	bl	strfindpos
.LVL106:
	.loc 1 192 0 is_stmt 0
	cbnz	x0, .L106
.L102:
	.loc 1 196 0 is_stmt 1
	mov	x0, x19
	bl	kfree
.LVL107:
	.loc 1 199 0
	mov	w0, w20
	ldp	x19, x20, [sp,16]
	.cfi_remember_state
	.cfi_restore 20
	.cfi_restore 19
.LVL108:
	ldp	x29, x30, [sp], 32
	.cfi_restore 30
	.cfi_restore 29
	.cfi_def_cfa 31, 0
	ret
.LVL109:
.L103:
	.cfi_restore_state
	.loc 1 188 0
	mov	w20, 0
.LVL110:
	.loc 1 199 0
	mov	w0, w20
.LVL111:
	ldp	x19, x20, [sp,16]
	.cfi_remember_state
	.cfi_restore 19
	.cfi_restore 20
.LVL112:
	ldp	x29, x30, [sp], 32
	.cfi_restore 29
	.cfi_restore 30
	.cfi_def_cfa 31, 0
	ret
.LVL113:
.L106:
	.cfi_restore_state
	.loc 1 194 0
	adrp	x0, .LC12
	mov	x1, x19
	add	x0, x0, :lo12:.LC12
	.loc 1 193 0
	mov	w20, 1
	.loc 1 194 0
	bl	printk
.LVL114:
	b	.L102
	.cfi_endproc
.LFE3055:
	.size	match_appdl_url, .-match_appdl_url
	.align	2
	.global	get_report_msg
	.type	get_report_msg, %function
get_report_msg:
.LFB3056:
	.loc 1 205 0
	.cfi_startproc
.LVL115:
	stp	x29, x30, [sp, -96]!
	.cfi_def_cfa_offset 96
	.cfi_offset 29, -96
	.cfi_offset 30, -88
	add	x29, sp, 0
	.cfi_def_cfa_register 29
	stp	x19, x20, [sp,16]
	stp	x21, x22, [sp,32]
	stp	x23, x24, [sp,48]
	str	x25, [sp,64]
	.cfi_offset 19, -80
	.cfi_offset 20, -72
	.cfi_offset 21, -64
	.cfi_offset 22, -56
	.cfi_offset 23, -48
	.cfi_offset 24, -40
	.cfi_offset 25, -32
	.loc 1 212 0
	cbz	x2, .L119
	mov	w22, w0
	.loc 1 214 0
	mov	x0, x2
.LVL116:
	mov	w23, w1
	str	x2, [x29,88]
	bl	strlen
.LVL117:
	.loc 1 215 0
	add	w0, w0, 65
.LBB380:
.LBB381:
	.loc 4 435 0
	mov	w1, 32
.LBE381:
.LBE380:
	.loc 1 215 0
	sxtw	x20, w0
.LBB383:
.LBB382:
	.loc 4 435 0
	mov	x0, x20
	bl	__kmalloc
.LVL118:
	mov	x21, x0
.LBE382:
.LBE383:
	.loc 1 216 0
	cbz	x0, .L119
	.loc 1 218 0
	ldr	x3, [x29,88]
.LVL119:
	adrp	x2, .LC13
	mov	x1, x20
	add	x2, x2, :lo12:.LC13
	bl	snprintf
.LVL120:
	.loc 1 219 0
	mov	x0, x21
	bl	strlen
.LVL121:
	.loc 1 220 0
	cmp	w0, 3999
	.loc 1 219 0
	mov	w25, w0
	.loc 1 220 0
	bgt	.L111
	.loc 1 222 0
	lsl	w19, w0, 1
.LBB384:
.LBB385:
	.loc 4 435 0
	mov	w1, 32
.LBE385:
.LBE384:
	.loc 1 222 0
	add	w24, w19, 1
.LBB391:
.LBB388:
	.loc 4 435 0
	sxtw	x0, w24
	bl	__kmalloc
.LVL122:
	mov	x20, x0
.L114:
.LBE388:
.LBE391:
	.loc 1 224 0
	mov	x0, x21
	.loc 1 223 0
	cbz	x20, .L120
	.loc 1 228 0
	mov	w3, w24
	mov	w1, w25
	mov	x2, x20
	.loc 1 231 0
	add	w24, w19, 33
	.loc 1 228 0
	bl	byte_to_hex
.LVL123:
	.loc 1 229 0
	strb	wzr, [x20,w19,sxtw]
.LBB392:
.LBB393:
	.loc 4 435 0
	mov	x0, x24
	mov	w1, 32
	bl	__kmalloc
.LVL124:
	mov	x19, x0
.LBE393:
.LBE392:
	.loc 1 232 0
	cbnz	x0, .L113
	.loc 1 233 0
	mov	x0, x21
	bl	kfree
.LVL125:
	.loc 1 234 0
	mov	x0, x20
	bl	kfree
.LVL126:
.L119:
	.loc 1 235 0
	mov	x0, 0
.L118:
	.loc 1 244 0
	ldp	x19, x20, [sp,16]
	.cfi_remember_state
	.cfi_restore 20
	.cfi_restore 19
	ldp	x21, x22, [sp,32]
	.cfi_restore 22
	.cfi_restore 21
.LVL127:
	ldp	x23, x24, [sp,48]
	.cfi_restore 24
	.cfi_restore 23
	ldr	x25, [sp,64]
	.cfi_restore 25
	ldp	x29, x30, [sp], 96
	.cfi_restore 30
	.cfi_restore 29
	.cfi_def_cfa 31, 0
	ret
.LVL128:
.L111:
	.cfi_restore_state
.LBB394:
.LBB389:
.LBB386:
	.loc 4 430 0
	adrp	x0, kmalloc_caches+104
	mov	w1, 32
	mov	x2, 8001
.LBE386:
.LBE389:
.LBE394:
	.loc 1 222 0
	mov	w24, 8001
	mov	w19, 8000
	.loc 1 221 0
	mov	w25, 4000
.LBB395:
.LBB390:
.LBB387:
	.loc 4 430 0
	ldr	x0, [x0,#:lo12:kmalloc_caches+104]
	bl	kmem_cache_alloc_trace
.LVL129:
	mov	x20, x0
	b	.L114
.L113:
.LBE387:
.LBE390:
.LBE395:
	.loc 1 237 0
	mov	w1, 0
	mov	x2, x24
	bl	memset
.LVL130:
	.loc 1 238 0
	adrp	x2, .LC15
	mov	w4, w23
	mov	x5, x20
	mov	x1, x24
	add	x2, x2, :lo12:.LC15
	mov	w3, w22
	mov	x0, x19
	bl	snprintf
.LVL131:
	.loc 1 239 0
	mov	x0, x19
	bl	strlen
.LVL132:
	.loc 1 240 0
	mov	w2, w0
	adrp	x0, .LC16
	mov	w1, w22
	mov	x3, x19
	add	x0, x0, :lo12:.LC16
	bl	printk
.LVL133:
	.loc 1 241 0
	mov	x0, x20
	bl	kfree
.LVL134:
	.loc 1 242 0
	mov	x0, x21
	bl	kfree
.LVL135:
	.loc 1 243 0
	mov	x0, x19
	b	.L118
.L120:
	.loc 1 224 0
	bl	kfree
.LVL136:
	.loc 1 225 0
	adrp	x0, .LC14
	add	x0, x0, :lo12:.LC14
	bl	printk
.LVL137:
	.loc 1 226 0
	mov	x0, 0
	b	.L118
	.cfi_endproc
.LFE3056:
	.size	get_report_msg, .-get_report_msg
	.align	2
	.global	new_dl_monitor
	.type	new_dl_monitor, %function
new_dl_monitor:
.LFB3057:
	.loc 1 247 0
	.cfi_startproc
.LVL138:
	stp	x29, x30, [sp, -64]!
	.cfi_def_cfa_offset 64
	.cfi_offset 29, -64
	.cfi_offset 30, -56
	add	x29, sp, 0
	.cfi_def_cfa_register 29
	str	x23, [sp,48]
	.cfi_offset 23, -16
	mov	w23, w0
	.loc 1 249 0
	mov	x0, x2
.LVL139:
	.loc 1 247 0
	stp	x19, x20, [sp,16]
	stp	x21, x22, [sp,32]
	.cfi_offset 19, -48
	.cfi_offset 20, -40
	.cfi_offset 21, -32
	.cfi_offset 22, -24
	.loc 1 247 0
	mov	x21, x2
	mov	w22, w1
	.loc 1 249 0
	bl	strlen
.LVL140:
	mov	x20, x0
.LBB396:
.LBB397:
	.loc 4 430 0
	adrp	x0, kmalloc_caches+16
	mov	w1, 32
	mov	x2, 144
	ldr	x0, [x0,#:lo12:kmalloc_caches+16]
	bl	kmem_cache_alloc_trace
.LVL141:
	mov	x19, x0
.LBE397:
.LBE396:
	.loc 1 252 0
	cbz	x0, .L124
	.loc 1 256 0
	add	w0, w20, 1
	.loc 1 255 0
	mov	w2, 1
	.loc 1 254 0
	str	w22, [x19,112]
.LBB398:
.LBB399:
	.loc 4 435 0
	mov	w1, 32
.LBE399:
.LBE398:
	.loc 1 255 0
	str	w2, [x19,140]
.LBB401:
.LBB400:
	.loc 4 435 0
	sxtw	x0, w0
	bl	__kmalloc
.LVL142:
.LBE400:
.LBE401:
	.loc 1 256 0
	str	x0, [x19,128]
	.loc 1 257 0
	cbz	x0, .L125
	.loc 1 261 0
	sxtw	x22, w20
.LVL143:
	mov	x1, x21
	mov	x2, x22
	bl	memcpy
.LVL144:
	.loc 1 262 0
	ldr	x1, [x19,128]
	.loc 1 267 0
	mov	x0, x19
	.loc 1 262 0
	strb	wzr, [x1,x22]
	.loc 1 263 0
	str	w20, [x19,136]
	.loc 1 264 0
	str	w23, [x19,108]
	.loc 1 265 0
	strb	wzr, [x19,104]
.LVL145:
.L122:
	.loc 1 268 0
	ldp	x19, x20, [sp,16]
	.cfi_remember_state
	.cfi_restore 20
	.cfi_restore 19
	ldp	x21, x22, [sp,32]
	.cfi_restore 22
	.cfi_restore 21
.LVL146:
	ldr	x23, [sp,48]
	.cfi_restore 23
.LVL147:
	ldp	x29, x30, [sp], 64
	.cfi_restore 30
	.cfi_restore 29
	.cfi_def_cfa 31, 0
	ret
.LVL148:
.L124:
	.cfi_restore_state
	.loc 1 253 0
	mov	x0, 0
	b	.L122
.L125:
	.loc 1 258 0
	mov	x0, x19
	bl	kfree
.LVL149:
	.loc 1 259 0
	mov	x0, 0
	b	.L122
	.cfi_endproc
.LFE3057:
	.size	new_dl_monitor, .-new_dl_monitor
	.align	2
	.global	free_download_monitor
	.type	free_download_monitor, %function
free_download_monitor:
.LFB3058:
	.loc 1 271 0
	.cfi_startproc
.LVL150:
	stp	x29, x30, [sp, -32]!
	.cfi_def_cfa_offset 32
	.cfi_offset 29, -32
	.cfi_offset 30, -24
	add	x29, sp, 0
	.cfi_def_cfa_register 29
	str	x19, [sp,16]
	.cfi_offset 19, -16
	.loc 1 271 0
	mov	x19, x0
	.loc 1 272 0
	ldr	x0, [x0,128]
.LVL151:
	bl	kfree
.LVL152:
	.loc 1 273 0
	mov	x0, x19
	bl	kfree
.LVL153:
	.loc 1 274 0
	ldr	x19, [sp,16]
	.cfi_restore 19
.LVL154:
	ldp	x29, x30, [sp], 32
	.cfi_restore 30
	.cfi_restore 29
	.cfi_def_cfa 31, 0
	ret
	.cfi_endproc
.LFE3058:
	.size	free_download_monitor, .-free_download_monitor
	.align	2
	.global	get_select
	.type	get_select, %function
get_select:
.LFB3059:
	.loc 1 278 0
	.cfi_startproc
.LVL155:
	stp	x29, x30, [sp, -48]!
	.cfi_def_cfa_offset 48
	.cfi_offset 29, -48
	.cfi_offset 30, -40
	add	x29, sp, 0
	.cfi_def_cfa_register 29
	stp	x21, x22, [sp,32]
	.cfi_offset 21, -16
	.cfi_offset 22, -8
.LBB402:
.LBB403:
	.loc 2 317 0
	adrp	x22, .LANCHOR0
.LBE403:
.LBE402:
	.loc 1 278 0
	mov	x21, x0
.LBB406:
.LBB404:
	.loc 2 317 0
	add	x22, x22, :lo12:.LANCHOR0
	mov	x0, x22
.LVL156:
.LBE404:
.LBE406:
	.loc 1 278 0
	stp	x19, x20, [sp,16]
	.cfi_offset 19, -32
	.cfi_offset 20, -24
.LBB407:
.LBB405:
	.loc 2 317 0
	bl	_raw_spin_lock_bh
.LVL157:
.LBE405:
.LBE407:
.LBB408:
	.loc 1 284 0
	ldr	x1, [x22,24]
	add	x3, x22, 24
.LBE408:
	.loc 1 284 0 is_stmt 0 discriminator 1
	cmp	x1, x3
	beq	.L128
	mov	w20, 0
.LVL158:
	mov	x19, 0
	mov	x0, x22
.L129:
	.loc 1 285 0 is_stmt 1
	ldr	x2, [x1,120]
	cmp	x2, x21
	csel	x19, x1, x19, eq
.LBB409:
	.loc 1 284 0 discriminator 2
	ldr	x1, [x1]
	cmp	x2, x21
	csinc	w20, w20, wzr, ne
.LBE409:
	.loc 1 284 0 is_stmt 0 discriminator 1
	cmp	x1, x3
	bne	.L129
.LBB410:
.LBB411:
	.loc 2 362 0 is_stmt 1
	bl	_raw_spin_unlock_bh
.LVL159:
.LBE411:
.LBE410:
	.loc 1 292 0
	mov	w0, 0
	.loc 1 291 0
	cbnz	w20, .L138
.L135:
	.loc 1 306 0
	ldp	x19, x20, [sp,16]
	.cfi_remember_state
	.cfi_restore 20
	.cfi_restore 19
.LVL160:
	ldp	x21, x22, [sp,32]
	.cfi_restore 22
	.cfi_restore 21
.LVL161:
	ldp	x29, x30, [sp], 48
	.cfi_restore 30
	.cfi_restore 29
	.cfi_def_cfa 31, 0
	ret
.LVL162:
.L138:
	.cfi_restore_state
	.loc 1 293 0
	bl	get_cur_time
.LVL163:
	ldr	x1, [x19,16]
	sub	x1, x0, x1
	mov	x0, 12000
	cmp	x1, x0
	.loc 1 294 0
	ldr	w1, [x19,140]
	.loc 1 293 0
	bls	.L131
	.loc 1 293 0 is_stmt 0 discriminator 1
	cmp	w1, 1
	bne	.L132
	.loc 1 295 0 is_stmt 1
	mov	w0, 2
	str	w0, [x19,140]
	.loc 1 296 0
	b	.L135
.L131:
	.loc 1 298 0
	cmp	w1, 1
	beq	.L139
.L132:
	.loc 1 302 0
	ldr	w3, [x19,112]
	adrp	x0, .LC18
	add	x0, x0, :lo12:.LC18
	mov	x2, x21
	bl	printk
.LVL164:
	.loc 1 305 0
	ldr	w0, [x19,140]
.L140:
	.loc 1 306 0
	ldp	x19, x20, [sp,16]
	.cfi_remember_state
	.cfi_restore 19
	.cfi_restore 20
.LVL165:
	ldp	x21, x22, [sp,32]
	.cfi_restore 21
	.cfi_restore 22
.LVL166:
	ldp	x29, x30, [sp], 48
	.cfi_restore 29
	.cfi_restore 30
	.cfi_def_cfa 31, 0
	ret
.LVL167:
.L128:
	.cfi_restore_state
.LBB413:
.LBB412:
	.loc 2 362 0
	mov	x0, x22
	bl	_raw_spin_unlock_bh
.LVL168:
.LBE412:
.LBE413:
	.loc 1 292 0
	mov	w0, 0
	b	.L135
.LVL169:
.L139:
	.loc 1 299 0
	ldr	w2, [x19,112]
	adrp	x0, .LC17
	add	x0, x0, :lo12:.LC17
	mov	x1, x21
	bl	printk
.LVL170:
	.loc 1 305 0
	ldr	w0, [x19,140]
	b	.L140
	.cfi_endproc
.LFE3059:
	.size	get_select, .-get_select
	.align	2
	.global	get_download_monitor
	.type	get_download_monitor, %function
get_download_monitor:
.LFB3061:
	.loc 1 332 0
	.cfi_startproc
.LVL171:
	stp	x29, x30, [sp, -112]!
	.cfi_def_cfa_offset 112
	.cfi_offset 29, -112
	.cfi_offset 30, -104
	add	x29, sp, 0
	.cfi_def_cfa_register 29
	stp	x19, x20, [sp,16]
	.cfi_offset 19, -96
	.cfi_offset 20, -88
	mov	x19, x0
	.loc 1 337 0
	mov	x0, x2
.LVL172:
	.loc 1 332 0
	stp	x25, x26, [sp,64]
	.loc 1 337 0
	str	x2, [x29,104]
	.cfi_offset 25, -48
	.cfi_offset 26, -40
.LBB414:
.LBB415:
	.loc 2 317 0
	adrp	x25, .LANCHOR0
.LBE415:
.LBE414:
	.loc 1 332 0
	stp	x21, x22, [sp,32]
	stp	x23, x24, [sp,48]
	.cfi_offset 21, -80
	.cfi_offset 22, -72
	.cfi_offset 23, -64
	.cfi_offset 24, -56
	mov	w21, w1
	stp	x27, x28, [sp,80]
	.cfi_offset 27, -32
	.cfi_offset 28, -24
	.loc 1 337 0
	bl	strlen
.LVL173:
	mov	w24, w0
.LVL174:
.LBB417:
.LBB416:
	.loc 2 317 0
	add	x0, x25, :lo12:.LANCHOR0
	bl	_raw_spin_lock_bh
.LVL175:
.LBE416:
.LBE417:
	.loc 1 340 0
	adrp	x0, .LANCHOR2
	.loc 1 341 0
	mov	w1, 11520
	.loc 1 340 0
	add	x0, x0, :lo12:.LANCHOR2
	.loc 1 341 0
	movk	w1, 0x131, lsl 16
	ldr	x2, [x29,104]
.LVL176:
	.loc 1 340 0
	ldr	w26, [x0,1656]
.LVL177:
	add	w3, w26, 1
	.loc 1 341 0
	cmp	w3, w1
	bhi	.L142
	.loc 1 340 0
	str	w3, [x0,1656]
.L143:
	.loc 1 343 0
	mov	w0, w21
	mov	w1, w26
	bl	new_dl_monitor
.LVL178:
	mov	x23, x0
.LVL179:
	.loc 1 344 0
	cbz	x0, .L159
	.loc 1 348 0
	str	x19, [x0,120]
	.loc 1 350 0
	mov	x19, x0
.LVL180:
	.loc 1 349 0
	bl	get_cur_time
.LVL181:
	str	x0, [x23,16]
.LBB418:
.LBB419:
	.loc 3 63 0
	add	x1, x25, :lo12:.LANCHOR0
	add	x20, x1, 24
.LBE419:
.LBE418:
	.loc 1 351 0 discriminator 1
	cmp	x23, x20
.LBB423:
.LBB422:
	.loc 3 63 0
	ldr	x0, [x1,24]
.LBB420:
.LBB421:
	.loc 3 42 0
	str	x23, [x0,8]
	.loc 3 43 0
	str	x0, [x23]
	.loc 3 44 0
	str	x20, [x23,8]
	.loc 3 45 0
	str	x23, [x1,24]
.LBE421:
.LBE420:
.LBE422:
.LBE423:
	.loc 1 351 0 discriminator 1
	beq	.L146
	ldr	w22, [x23,108]
	.loc 1 355 0
	sxtw	x27, w24
	ldr	w28, [x23,112]
	b	.L150
.L147:
.LBB424:
	.loc 1 351 0 discriminator 2
	ldr	x19, [x19]
.LBE424:
	.loc 1 351 0 is_stmt 0 discriminator 1
	cmp	x19, x20
	beq	.L160
.L150:
	.loc 1 352 0 is_stmt 1
	cmp	w21, w22
	bne	.L147
	.loc 1 353 0
	ldr	w0, [x19,112]
	cmp	w0, w28
	beq	.L147
	.loc 1 354 0
	ldr	w0, [x19,136]
	cmp	w0, w24
	bne	.L147
	.loc 1 355 0
	ldr	x1, [x19,128]
	mov	x2, x27
	ldr	x0, [x23,128]
	bl	memcmp
.LVL182:
	cbnz	w0, .L147
	.loc 1 356 0
	mov	w0, 1
	strb	w0, [x23,104]
	.loc 1 359 0
	ldr	w0, [x19,140]
	.loc 1 358 0
	ldr	w26, [x19,112]
.LVL183:
	.loc 1 359 0
	str	w0, [x23,140]
	.loc 1 366 0
	cbz	x19, .L149
	.loc 1 367 0
	bl	get_cur_time
.LVL184:
	ldr	x1, [x19,16]
	sub	x1, x0, x1
	mov	x0, 12000
	cmp	x1, x0
	bls	.L146
	ldr	w28, [x23,112]
	.loc 1 368 0
	strb	wzr, [x23,104]
.LVL185:
.L153:
	.loc 1 373 0
	adrp	x0, .LC20
	mov	w1, w28
	add	x0, x0, :lo12:.LC20
	bl	printk
.LVL186:
	b	.L154
.L160:
	ldrb	w0, [x23,104]
	.loc 1 370 0
	cbz	w0, .L153
.L149:
	.loc 1 371 0
	adrp	x0, .LC19
	mov	w1, w28
	add	x0, x0, :lo12:.LC19
	mov	w2, w26
	bl	printk
.LVL187:
.L154:
.LBB425:
.LBB426:
	.loc 2 362 0
	add	x0, x25, :lo12:.LANCHOR0
	bl	_raw_spin_unlock_bh
.LVL188:
.LBE426:
.LBE425:
	.loc 1 375 0
	mov	x0, x23
.LVL189:
.L145:
	.loc 1 376 0
	ldp	x19, x20, [sp,16]
	.cfi_remember_state
	.cfi_restore 20
	.cfi_restore 19
.LVL190:
	ldp	x21, x22, [sp,32]
	.cfi_restore 22
	.cfi_restore 21
.LVL191:
	ldp	x23, x24, [sp,48]
	.cfi_restore 24
	.cfi_restore 23
.LVL192:
	ldp	x25, x26, [sp,64]
	.cfi_restore 26
	.cfi_restore 25
.LVL193:
	ldp	x27, x28, [sp,80]
	.cfi_restore 28
	.cfi_restore 27
	ldp	x29, x30, [sp], 112
	.cfi_restore 30
	.cfi_restore 29
	.cfi_def_cfa 31, 0
	ret
.LVL194:
.L142:
	.cfi_restore_state
	.loc 1 342 0
	mov	w1, 1000
	str	w1, [x0,1656]
	b	.L143
.LVL195:
.L146:
	ldrb	w0, [x23,104]
	ldr	w28, [x23,112]
	.loc 1 370 0
	cbnz	w0, .L149
	b	.L153
.LVL196:
.L159:
.LBB427:
.LBB428:
	.loc 2 362 0
	add	x0, x25, :lo12:.LANCHOR0
.LVL197:
	bl	_raw_spin_unlock_bh
.LVL198:
.LBE428:
.LBE427:
	.loc 1 346 0
	mov	x0, 0
	b	.L145
	.cfi_endproc
.LFE3061:
	.size	get_download_monitor, .-get_download_monitor
	.align	2
	.global	nofity_loop
	.type	nofity_loop, %function
nofity_loop:
.LFB3062:
	.loc 1 379 0
	.cfi_startproc
.LVL199:
	stp	x29, x30, [sp, -96]!
	.cfi_def_cfa_offset 96
	.cfi_offset 29, -96
	.cfi_offset 30, -88
	add	x29, sp, 0
	.cfi_def_cfa_register 29
	stp	x21, x22, [sp,32]
	.cfi_offset 21, -64
	.cfi_offset 22, -56
	mov	w21, w0
	.loc 1 381 0
	mov	x0, x2
.LVL200:
	.loc 1 379 0
	stp	x19, x20, [sp,16]
	stp	x23, x24, [sp,48]
	stp	x25, x26, [sp,64]
	str	x27, [sp,80]
	.cfi_offset 19, -80
	.cfi_offset 20, -72
	.cfi_offset 23, -48
	.cfi_offset 24, -40
	.cfi_offset 25, -32
	.cfi_offset 26, -24
	.cfi_offset 27, -16
	.loc 1 379 0
	mov	x22, x2
	mov	w23, w1
	mov	w24, w3
	.loc 1 381 0
	bl	strlen
.LVL201:
	mov	w26, w0
.LVL202:
.LBB429:
	.loc 1 383 0
	adrp	x0, .LANCHOR0
	add	x0, x0, :lo12:.LANCHOR0
	add	x20, x0, 24
	ldr	x19, [x0,24]
.LVL203:
.LBE429:
	.loc 1 383 0 is_stmt 0 discriminator 1
	cmp	x19, x20
	beq	.L161
	.loc 1 388 0 is_stmt 1
	adrp	x25, .LC21
	.loc 1 385 0
	sxtw	x27, w26
	.loc 1 388 0
	add	x25, x25, :lo12:.LC21
	b	.L166
.L163:
.LBB430:
	.loc 1 383 0 discriminator 2
	ldr	x19, [x19]
.LBE430:
	.loc 1 383 0 is_stmt 0 discriminator 1
	cmp	x19, x20
	beq	.L161
.L166:
	.loc 1 384 0 is_stmt 1
	ldr	w0, [x19,108]
	cmp	w0, w21
	bne	.L163
	.loc 1 384 0 is_stmt 0 discriminator 1
	ldr	w0, [x19,136]
	cmp	w0, w26
	bne	.L163
	.loc 1 385 0 is_stmt 1
	ldr	x0, [x19,128]
	mov	x1, x22
	mov	x2, x27
	bl	memcmp
.LVL204:
	.loc 1 384 0 discriminator 2
	cbnz	w0, .L163
	.loc 1 386 0
	ldr	w2, [x19,112]
	.loc 1 385 0
	cmp	w2, w23
	beq	.L163
	.loc 1 387 0
	str	w24, [x19,140]
	.loc 1 388 0
	mov	x0, x25
	mov	w1, w21
	mov	w3, w24
	bl	printk
.LVL205:
	b	.L163
.L161:
	.loc 1 394 0
	ldp	x19, x20, [sp,16]
	.cfi_restore 20
	.cfi_restore 19
.LVL206:
	ldp	x21, x22, [sp,32]
	.cfi_restore 22
	.cfi_restore 21
.LVL207:
	ldp	x23, x24, [sp,48]
	.cfi_restore 24
	.cfi_restore 23
.LVL208:
	ldp	x25, x26, [sp,64]
	.cfi_restore 26
	.cfi_restore 25
.LVL209:
	ldr	x27, [sp,80]
	.cfi_restore 27
	ldp	x29, x30, [sp], 96
	.cfi_restore 30
	.cfi_restore 29
	.cfi_def_cfa 31, 0
	ret
	.cfi_endproc
.LFE3062:
	.size	nofity_loop, .-nofity_loop
	.align	2
	.global	download_notify
	.type	download_notify, %function
download_notify:
.LFB3063:
	.loc 1 397 0
	.cfi_startproc
.LVL210:
	stp	x29, x30, [sp, -64]!
	.cfi_def_cfa_offset 64
	.cfi_offset 29, -64
	.cfi_offset 30, -56
	.loc 1 400 0
	cmp	w0, 999
	.loc 1 397 0
	add	x29, sp, 0
	.cfi_def_cfa_register 29
	stp	x19, x20, [sp,16]
	stp	x21, x22, [sp,32]
	str	x23, [sp,48]
	.cfi_offset 19, -48
	.cfi_offset 20, -40
	.cfi_offset 21, -32
	.cfi_offset 22, -24
	.cfi_offset 23, -16
	.loc 1 400 0
	bgt	.L180
.LVL211:
.L168:
	.loc 1 419 0
	ldp	x19, x20, [sp,16]
	.cfi_remember_state
	.cfi_restore 20
	.cfi_restore 19
.LVL212:
	ldp	x21, x22, [sp,32]
	.cfi_restore 22
	.cfi_restore 21
	ldr	x23, [sp,48]
	.cfi_restore 23
	ldp	x29, x30, [sp], 64
	.cfi_restore 30
	.cfi_restore 29
	.cfi_def_cfa 31, 0
	ret
.L180:
	.cfi_restore_state
.LBB431:
.LBB432:
	.loc 2 317 0
	adrp	x23, .LANCHOR0
	mov	w20, w0
	add	x21, x23, :lo12:.LANCHOR0
	mov	x22, x1
	mov	x0, x21
.LVL213:
	bl	_raw_spin_lock_bh
.LVL214:
.LBE432:
.LBE431:
.LBB433:
	.loc 1 403 0
	ldr	x19, [x21,24]
.LVL215:
	add	x0, x21, 24
.LBE433:
	.loc 1 403 0 is_stmt 0 discriminator 1
	cmp	x19, x0
	beq	.L170
	.loc 1 404 0 is_stmt 1
	ldr	w1, [x19,112]
	cmp	w20, w1
	beq	.L171
.L173:
.LBB434:
	.loc 1 403 0 discriminator 2
	ldr	x19, [x19]
.LBE434:
	.loc 1 403 0 is_stmt 0 discriminator 1
	cmp	x19, x0
	beq	.L170
	.loc 1 404 0 is_stmt 1
	ldr	w3, [x19,112]
	cmp	w3, w20
	bne	.L173
.L171:
	.loc 1 405 0
	adrp	x1, .LC22
	mov	x0, x22
	add	x1, x1, :lo12:.LC22
	mov	x2, 5
	bl	memcmp
.LVL216:
	cbz	w0, .L181
	.loc 1 409 0
	mov	w1, 3
	.loc 1 410 0
	adrp	x0, .LC24
	.loc 1 409 0
	str	w1, [x19,140]
	.loc 1 410 0
	add	x0, x0, :lo12:.LC24
	mov	w1, w20
	bl	printk
.LVL217:
.L175:
	.loc 1 412 0
	ldr	x2, [x19,128]
	mov	w1, w20
	ldr	w3, [x19,140]
	ldr	w0, [x19,108]
	bl	nofity_loop
.LVL218:
.LBB435:
.LBB436:
	.loc 2 362 0
	add	x0, x23, :lo12:.LANCHOR0
	bl	_raw_spin_unlock_bh
.LVL219:
.LBE436:
.LBE435:
	.loc 1 419 0
	ldr	x23, [sp,48]
	.cfi_remember_state
	.cfi_restore 23
	ldp	x19, x20, [sp,16]
	.cfi_restore 19
	.cfi_restore 20
.LVL220:
	ldp	x21, x22, [sp,32]
	.cfi_restore 21
	.cfi_restore 22
.LVL221:
	ldp	x29, x30, [sp], 64
	.cfi_restore 29
	.cfi_restore 30
	.cfi_def_cfa 31, 0
	ret
.LVL222:
.L181:
	.cfi_restore_state
	.loc 1 406 0
	mov	w1, 2
	.loc 1 407 0
	adrp	x0, .LC23
	.loc 1 406 0
	str	w1, [x19,140]
	.loc 1 407 0
	add	x0, x0, :lo12:.LC23
	mov	w1, w20
	bl	printk
.LVL223:
	b	.L175
.L170:
.LBB437:
.LBB438:
	.loc 2 362 0
	add	x0, x23, :lo12:.LANCHOR0
	bl	_raw_spin_unlock_bh
.LVL224:
.LBE438:
.LBE437:
	.loc 1 418 0
	adrp	x0, .LC25
	mov	w1, w20
	mov	x2, x22
	add	x0, x0, :lo12:.LC25
	bl	printk
.LVL225:
	b	.L168
	.cfi_endproc
.LFE3063:
	.size	download_notify, .-download_notify
	.align	2
	.global	free_node
	.type	free_node, %function
free_node:
.LFB3064:
	.loc 1 422 0
	.cfi_startproc
.LVL226:
	stp	x29, x30, [sp, -32]!
	.cfi_def_cfa_offset 32
	.cfi_offset 29, -32
	.cfi_offset 30, -24
	add	x29, sp, 0
	.cfi_def_cfa_register 29
	stp	x19, x20, [sp,16]
	.cfi_offset 19, -16
	.cfi_offset 20, -8
.LBB439:
.LBB440:
	.loc 2 317 0
	adrp	x20, .LANCHOR0
.LBE440:
.LBE439:
	.loc 1 422 0
	mov	x19, x0
.LBB442:
.LBB441:
	.loc 2 317 0
	add	x20, x20, :lo12:.LANCHOR0
	mov	x0, x20
.LVL227:
	bl	_raw_spin_lock_bh
.LVL228:
.LBE441:
.LBE442:
.LBB443:
.LBB444:
	.loc 3 107 0
	ldr	x3, [x19]
	.loc 3 108 0
	mov	x2, 256
	.loc 3 107 0
	ldr	x0, [x19,8]
	.loc 3 109 0
	mov	x1, 512
	.loc 3 108 0
	movk	x2, 0xdead, lsl 48
	.loc 3 109 0
	movk	x1, 0xdead, lsl 48
.LBB445:
.LBB446:
	.loc 3 89 0
	str	x0, [x3,8]
	.loc 3 90 0
	str	x3, [x0]
.LBE446:
.LBE445:
.LBE444:
.LBE443:
.LBB448:
.LBB449:
	.loc 2 362 0
	mov	x0, x20
.LBE449:
.LBE448:
.LBB451:
.LBB447:
	.loc 3 108 0
	str	x2, [x19]
	.loc 3 109 0
	str	x1, [x19,8]
.LBE447:
.LBE451:
.LBB452:
.LBB450:
	.loc 2 362 0
	bl	_raw_spin_unlock_bh
.LVL229:
.LBE450:
.LBE452:
.LBB453:
.LBB454:
	.loc 1 272 0
	ldr	x0, [x19,128]
	bl	kfree
.LVL230:
	.loc 1 273 0
	mov	x0, x19
	bl	kfree
.LVL231:
.LBE454:
.LBE453:
	.loc 1 427 0
	ldp	x19, x20, [sp,16]
	.cfi_restore 20
	.cfi_restore 19
.LVL232:
	ldp	x29, x30, [sp], 32
	.cfi_restore 30
	.cfi_restore 29
	.cfi_def_cfa 31, 0
	ret
	.cfi_endproc
.LFE3064:
	.size	free_node, .-free_node
	.align	2
	.global	wait_user_event
	.type	wait_user_event, %function
wait_user_event:
.LFB3065:
	.loc 1 430 0
	.cfi_startproc
.LVL233:
	stp	x29, x30, [sp, -112]!
	.cfi_def_cfa_offset 112
	.cfi_offset 29, -112
	.cfi_offset 30, -104
	add	x29, sp, 0
	.cfi_def_cfa_register 29
	stp	x23, x24, [sp,48]
	.cfi_offset 23, -64
	.cfi_offset 24, -56
	.loc 1 438 0
	adrp	x24, .LANCHOR2
	.loc 1 430 0
	str	x25, [sp,64]
	stp	x19, x20, [sp,16]
	.cfi_offset 25, -48
	.cfi_offset 19, -96
	.cfi_offset 20, -88
	.loc 1 438 0
	add	x19, x24, :lo12:.LANCHOR2
	.loc 1 430 0
	stp	x21, x22, [sp,32]
	.cfi_offset 21, -80
	.cfi_offset 22, -72
	.loc 1 430 0
	mov	x21, x0
	.loc 1 434 0
	bl	get_cur_time
.LVL234:
	.loc 1 438 0
	ldr	w1, [x19,1660]
	.loc 1 434 0
	mov	x22, x0
.LVL235:
	.loc 1 438 0
	cmp	w1, 1
	bls	.L184
	.loc 1 439 0
	adrp	x0, .LC26
	.loc 1 440 0
	mov	w19, 0
	.loc 1 439 0
	add	x0, x0, :lo12:.LC26
	bl	printk
.LVL236:
	.loc 1 471 0
	ldr	x25, [sp,64]
	.cfi_remember_state
	.cfi_restore 25
	mov	w0, w19
	ldp	x19, x20, [sp,16]
	.cfi_restore 20
	.cfi_restore 19
	ldp	x21, x22, [sp,32]
	.cfi_restore 22
	.cfi_restore 21
.LVL237:
	ldp	x23, x24, [sp,48]
	.cfi_restore 24
	.cfi_restore 23
	ldp	x29, x30, [sp], 112
	.cfi_restore 30
	.cfi_restore 29
	.cfi_def_cfa 31, 0
	ret
.LVL238:
.L184:
	.cfi_restore_state
.LBB455:
.LBB456:
	.loc 2 317 0
	add	x25, x19, 1664
.LBE456:
.LBE455:
	.loc 1 446 0
	mov	x23, 11999
.LBB459:
.LBB457:
	.loc 2 317 0
	mov	x0, x25
.LBE457:
.LBE459:
	.loc 1 432 0
	mov	w20, 0
.LVL239:
.LBB460:
.LBB458:
	.loc 2 317 0
	bl	_raw_spin_lock_bh
.LVL240:
.LBE458:
.LBE460:
	.loc 1 443 0
	ldr	w1, [x19,1660]
.LBB461:
.LBB462:
	.loc 2 362 0
	mov	x0, x25
.LBE462:
.LBE461:
	.loc 1 443 0
	add	w1, w1, 1
	str	w1, [x19,1660]
.LBB464:
.LBB463:
	.loc 2 362 0
	bl	_raw_spin_unlock_bh
.LVL241:
.LBE463:
.LBE464:
	.loc 1 445 0
	ldr	w1, [x21,112]
	adrp	x0, .LC27
	ldr	w2, [x19,1660]
	add	x0, x0, :lo12:.LC27
	bl	printk
.LVL242:
	.loc 1 446 0
	bl	get_cur_time
.LVL243:
	sub	x0, x0, x22
	cmp	x0, x23
	bhi	.L196
.L189:
	.loc 1 447 0
	ldr	w0, [x21,140]
	cmp	w0, 1
	bne	.L187
	.loc 1 451 0
	add	w20, w20, 1
	mov	x19, 10
.L188:
.LBB465:
	.loc 1 452 0 discriminator 6
	mov	x0, 35160
	movk	x0, 0x41, lsl 16
	bl	__const_udelay
.LVL244:
	.loc 1 452 0 is_stmt 0 discriminator 8
	subs	x19, x19, #1
	bne	.L188
.LBE465:
	.loc 1 446 0 is_stmt 1
	bl	get_cur_time
.LVL245:
	sub	x0, x0, x22
	cmp	x0, x23
	bls	.L189
.L196:
.LBB466:
.LBB467:
	.loc 2 317 0
	add	x24, x24, :lo12:.LANCHOR2
	add	x19, x24, 1664
	mov	x0, x19
	bl	_raw_spin_lock_bh
.LVL246:
.LBE467:
.LBE466:
	.loc 1 455 0
	ldr	w1, [x24,1660]
.LBB469:
.LBB470:
	.loc 2 362 0
	mov	x0, x19
.LBE470:
.LBE469:
	.loc 1 455 0
	sub	w1, w1, #1
	str	w1, [x24,1660]
.LBB474:
.LBB471:
	.loc 2 362 0
	bl	_raw_spin_unlock_bh
.LVL247:
.LBE471:
.LBE474:
	.loc 1 463 0
	ldr	w1, [x21,112]
	ldr	w3, [x24,1660]
	str	x1, [x29,96]
	str	x3, [x29,104]
	bl	get_cur_time
.LVL248:
	sub	w4, w0, w22
	.loc 1 463 0 is_stmt 0 discriminator 1
	ldr	x1, [x29,96]
	adrp	x0, .LC29
	ldr	x3, [x29,104]
	add	x0, x0, :lo12:.LC29
	mov	w2, w20
	bl	printk
.LVL249:
	.loc 1 466 0 is_stmt 1
	mov	w0, 2
	str	w0, [x21,140]
	mov	w19, w0
.L191:
	.loc 1 469 0
	mov	x0, x21
	bl	free_node
.LVL250:
	.loc 1 471 0
	ldr	x25, [sp,64]
	.cfi_remember_state
	.cfi_restore 25
	mov	w0, w19
	ldp	x19, x20, [sp,16]
	.cfi_restore 19
	.cfi_restore 20
.LVL251:
	ldp	x21, x22, [sp,32]
	.cfi_restore 21
	.cfi_restore 22
.LVL252:
	ldp	x23, x24, [sp,48]
	.cfi_restore 23
	.cfi_restore 24
	ldp	x29, x30, [sp], 112
	.cfi_restore 29
	.cfi_restore 30
	.cfi_def_cfa 31, 0
	ret
.LVL253:
.L187:
	.cfi_restore_state
.LBB475:
.LBB468:
	.loc 2 317 0
	add	x24, x24, :lo12:.LANCHOR2
	add	x19, x24, 1664
	mov	x0, x19
	bl	_raw_spin_lock_bh
.LVL254:
.LBE468:
.LBE475:
	.loc 1 455 0
	ldr	w1, [x24,1660]
.LBB476:
.LBB472:
	.loc 2 362 0
	mov	x0, x19
.LBE472:
.LBE476:
	.loc 1 455 0
	sub	w1, w1, #1
	str	w1, [x24,1660]
.LBB477:
.LBB473:
	.loc 2 362 0
	bl	_raw_spin_unlock_bh
.LVL255:
.LBE473:
.LBE477:
	.loc 1 459 0
	ldr	w1, [x21,112]
	ldr	w2, [x21,140]
	ldr	w3, [x24,1660]
	str	x1, [x29,88]
	str	x2, [x29,96]
	str	x3, [x29,104]
	bl	get_cur_time
.LVL256:
	.loc 1 459 0 is_stmt 0 discriminator 1
	ldr	x1, [x29,88]
	.loc 1 459 0
	sub	w4, w0, w22
	.loc 1 459 0 discriminator 1
	ldr	x2, [x29,96]
	adrp	x0, .LC28
	ldr	x3, [x29,104]
	add	x0, x0, :lo12:.LC28
	bl	printk
.LVL257:
	ldr	w19, [x21,140]
	b	.L191
	.cfi_endproc
.LFE3065:
	.size	wait_user_event, .-wait_user_event
	.align	2
	.global	init_appdl
	.type	init_appdl, %function
init_appdl:
.LFB3066:
	.loc 1 474 0 is_stmt 1
	.cfi_startproc
	stp	x29, x30, [sp, -80]!
	.cfi_def_cfa_offset 80
	.cfi_offset 29, -80
	.cfi_offset 30, -72
	.loc 1 477 0
	adrp	x0, .LANCHOR2
	mov	w1, 1000
	.loc 1 474 0
	add	x29, sp, 0
	.cfi_def_cfa_register 29
	stp	x19, x20, [sp,16]
	.loc 1 477 0
	add	x0, x0, :lo12:.LANCHOR2
	.cfi_offset 19, -64
	.cfi_offset 20, -56
	adrp	x19, .LANCHOR1
	.loc 1 474 0
	stp	x23, x24, [sp,48]
	add	x19, x19, :lo12:.LANCHOR1
	.cfi_offset 23, -32
	.cfi_offset 24, -24
	adrp	x24, .LANCHOR0
	stp	x21, x22, [sp,32]
	str	x25, [sp,64]
	.cfi_offset 21, -48
	.cfi_offset 22, -40
	.cfi_offset 25, -16
	add	x19, x19, 1912
	add	x20, x24, :lo12:.LANCHOR0
.LBB478:
	.loc 1 482 0 discriminator 1
	adrp	x22, .LC30
	mov	x25, x0
.LBE478:
	.loc 1 478 0
	str	wzr, [x0,1688]
	add	x20, x20, 120
	.loc 1 477 0
	str	w1, [x0,1656]
	add	x23, x19, 4096
	.loc 1 479 0
	str	wzr, [x0,1660]
.LBB479:
	.loc 1 482 0 discriminator 1
	add	x22, x22, :lo12:.LC30
	add	x21, x0, 1696
.L198:
	mov	x0, x20
.LBE479:
.LBB480:
.LBB481:
	.loc 3 27 0
	str	x19, [x19]
	.loc 3 28 0
	str	x19, [x19,8]
.LBE481:
.LBE480:
.LBB482:
	.loc 1 482 0 discriminator 1
	mov	x1, x22
	mov	x2, x21
	add	x19, x19, 16
	add	x20, x20, 24
	bl	__raw_spin_lock_init
.LVL258:
.LBE482:
	.loc 1 480 0 discriminator 1
	cmp	x19, x23
	bne	.L198
.LBB483:
.LBB484:
	.loc 3 27 0
	add	x0, x24, :lo12:.LANCHOR0
.LBE484:
.LBE483:
.LBB487:
	.loc 1 485 0 discriminator 1
	adrp	x1, .LC31
.LBE487:
.LBB488:
.LBB485:
	.loc 3 27 0
	add	x3, x0, 24
.LBE485:
.LBE488:
.LBB489:
	.loc 1 485 0 discriminator 1
	mov	x2, x21
	add	x1, x1, :lo12:.LC31
.LBE489:
	.loc 1 487 0
	add	x19, x0, 40
.LBB490:
.LBB486:
	.loc 3 27 0
	str	x3, [x0,24]
	.loc 3 28 0
	str	x3, [x3,8]
.LBE486:
.LBE490:
.LBB491:
	.loc 1 485 0 discriminator 1
	bl	__raw_spin_lock_init
.LVL259:
.LBE491:
.LBB492:
	.loc 1 486 0 discriminator 1
	adrp	x1, .LC32
	add	x0, x25, 1664
	mov	x2, x21
	add	x1, x1, :lo12:.LC32
	bl	__raw_spin_lock_init
.LVL260:
.LBE492:
	.loc 1 487 0
	mov	x0, x19
	mov	x3, 0
	mov	w1, 0
	mov	x2, 0
	bl	init_timer_key
.LVL261:
	.loc 1 488 0
	str	xzr, [x19,40]
	.loc 1 490 0
	adrp	x1, jiffies
	.loc 1 489 0
	adrp	x2, dl_timer
	.loc 1 491 0
	mov	x0, x19
	.loc 1 489 0
	add	x2, x2, :lo12:dl_timer
	str	x2, [x19,32]
	.loc 1 490 0
	ldr	x1, [x1,#:lo12:jiffies]
	add	x1, x1, 16384
	add	x1, x1, 1616
	str	x1, [x19,16]
	.loc 1 491 0
	bl	add_timer
.LVL262:
	.loc 1 492 0
	ldr	x25, [sp,64]
	.cfi_restore 25
	ldp	x19, x20, [sp,16]
	.cfi_restore 20
	.cfi_restore 19
	ldp	x21, x22, [sp,32]
	.cfi_restore 22
	.cfi_restore 21
	ldp	x23, x24, [sp,48]
	.cfi_restore 24
	.cfi_restore 23
	ldp	x29, x30, [sp], 80
	.cfi_restore 30
	.cfi_restore 29
	.cfi_def_cfa 31, 0
	ret
	.cfi_endproc
.LFE3066:
	.size	init_appdl, .-init_appdl
	.align	2
	.global	uninit_appdl
	.type	uninit_appdl, %function
uninit_appdl:
.LFB3067:
	.loc 1 495 0
	.cfi_startproc
	.loc 1 496 0
	ret
	.cfi_endproc
.LFE3067:
	.size	uninit_appdl, .-uninit_appdl
	.global	g_wcount
	.section	.rodata.str1.8,"aMS",%progbits,1
	.align	3
.LC0:
	.string	"\0016hwad:dl_timer free dlid=%d url=%s\n"
	.zero	3
.LC1:
	.string	"\0016hwad:clear_appdl_rule\n"
	.zero	7
.LC2:
	.string	"\0016hwad:add_appdl_uid>=MAX_HASH  hid=%u\n"
.LC3:
	.string	"\0016hwad:id=%u uid=%u alreadyin\n"
	.zero	1
.LC4:
	.string	"\0016hwad:add_appdl_uid hid=%u uid=%u new\n"
.LC5:
	.string	"\0016hwad:clear_appdl_uid>=MAX_HASH id=%u\n"
.LC6:
	.string	"\0016hwad:clr_dl_uid uid=%u\n"
	.zero	6
.LC7:
	.string	"\0016hwad: output_appdl_rule start\n"
	.zero	7
.LC8:
	.string	"\0016hwad:output_appdl_rule uid=%d\n"
	.zero	7
.LC9:
	.string	"\0016hwad:output_appdl_rule end\n"
	.zero	2
.LC10:
	.string	"\0016hwad:match_appdl_uid>=MAX_HASH hid=%u\n"
	.zero	7
.LC11:
	.string	".apk"
	.zero	3
.LC12:
	.string	"\0016hwad:match dlurl true urlpath=%s\n"
	.zero	4
.LC13:
	.string	"%s"
	.zero	5
.LC14:
	.string	"\0016hwad:report_msg new urlhex failure\n"
	.zero	2
.LC15:
	.string	"%u %u %s"
	.zero	7
.LC16:
	.string	"\0016hwad:report_msg dlid=%u len=%d buf=%s\n"
	.zero	7
.LC17:
	.string	"\0016hwad:get_select DLST_WAIT %p dlid=%d\n"
.LC18:
	.string	"\0016hwad:get_select NF_%d %p dlid=%d\n"
	.zero	4
.LC19:
	.string	"\0016hwad:bwait=true dlid=%d oldid=%d\n"
	.zero	4
.LC20:
	.string	"\0016hwad:bwait=false dlid=%d\n"
	.zero	4
.LC21:
	.string	"\0016hwad:nofity_loop uid=%d dlid=%d act=%d\n"
	.zero	6
.LC22:
	.string	"allow"
	.zero	2
.LC23:
	.string	"\0016hwad:notify dlid=%d allow\n"
	.zero	3
.LC24:
	.string	"\0016hwad:notify dlid=%d reject\n"
	.zero	2
.LC25:
	.string	"\0016hwad:notify not found dlid=%d act=%s\n"
.LC26:
	.string	"\0016hwad:wait DLST_NOT wcnt=%d\n"
	.zero	2
.LC27:
	.string	"\0016hwad:wait dlid=%d wcnt=%d\n"
	.zero	3
.LC28:
	.string	"\0016hwad:wait event dlid=%d action=%d wcnt=%d time=%d\n"
	.zero	3
.LC29:
	.string	"\0016hwad:wait timeout dlid=%d cnt=%d wcnt=%d time=%d\n"
	.zero	4
.LC30:
	.string	"&(&g_appdllock[i])->rlock"
	.zero	6
.LC31:
	.string	"&(&g_wait_lock)->rlock"
	.zero	1
.LC32:
	.string	"&(&g_count_lock)->rlock"
	.bss
	.align	3
.LANCHOR0 = . + 0
.LANCHOR1 = . + 4352
.LANCHOR2 = . + 8704
	.type	g_wait_lock, %object
	.size	g_wait_lock, 24
g_wait_lock:
	.zero	24
	.type	g_dl_wait, %object
	.size	g_dl_wait, 16
g_dl_wait:
	.zero	16
	.type	g_timer, %object
	.size	g_timer, 80
g_timer:
	.zero	80
	.type	g_appdllock, %object
	.size	g_appdllock, 6144
g_appdllock:
	.zero	6144
	.type	g_appdlhead, %object
	.size	g_appdlhead, 4096
g_appdlhead:
	.zero	4096
	.type	g_dlid, %object
	.size	g_dlid, 4
g_dlid:
	.zero	4
	.type	g_wcount, %object
	.size	g_wcount, 4
g_wcount:
	.zero	4
	.type	g_count_lock, %object
	.size	g_count_lock, 24
g_count_lock:
	.zero	24
	.type	g_waitcount, %object
	.size	g_waitcount, 4
g_waitcount:
	.zero	4
	.zero	4
	.type	__key.42000, %object
	.size	__key.42000, 0
__key.42000:
	.type	__key.42004, %object
	.size	__key.42004, 0
__key.42004:
	.type	__key.42005, %object
	.size	__key.42005, 0
__key.42005:
	.text
.Letext0:
	.file 5 "/mnt/disk/jenkins2/ci/workspace/chipset_component_FRD_b160_Open_Source/component_code/vendor/huawei/extra/build/build_script/austin_kernel_release/kernel/include/uapi/asm-generic/int-ll64.h"
	.file 6 "/mnt/disk/jenkins2/ci/workspace/chipset_component_FRD_b160_Open_Source/component_code/vendor/huawei/extra/build/build_script/austin_kernel_release/kernel/include/asm-generic/int-ll64.h"
	.file 7 "/mnt/disk/jenkins2/ci/workspace/chipset_component_FRD_b160_Open_Source/component_code/vendor/huawei/extra/build/build_script/austin_kernel_release/kernel/include/uapi/asm-generic/posix_types.h"
	.file 8 "/mnt/disk/jenkins2/ci/workspace/chipset_component_FRD_b160_Open_Source/component_code/vendor/huawei/extra/build/build_script/austin_kernel_release/kernel/include/uapi/linux/types.h"
	.file 9 "/mnt/disk/jenkins2/ci/workspace/chipset_component_FRD_b160_Open_Source/component_code/vendor/huawei/extra/build/build_script/austin_kernel_release/kernel/include/linux/types.h"
	.file 10 "/mnt/disk/jenkins2/ci/workspace/chipset_component_FRD_b160_Open_Source/component_code/vendor/huawei/extra/build/build_script/austin_kernel_release/kernel/include/linux/export.h"
	.file 11 "/mnt/disk/jenkins2/ci/workspace/chipset_component_FRD_b160_Open_Source/component_code/vendor/huawei/extra/build/build_script/austin_kernel_release/kernel/include/linux/capability.h"
	.file 12 "/mnt/disk/jenkins2/ci/workspace/chipset_component_FRD_b160_Open_Source/component_code/vendor/huawei/extra/build/build_script/austin_kernel_release/kernel/include/linux/thread_info.h"
	.file 13 "/mnt/disk/jenkins2/ci/workspace/chipset_component_FRD_b160_Open_Source/component_code/vendor/huawei/extra/build/build_script/austin_kernel_release/kernel/include/uapi/linux/time.h"
	.file 14 "/mnt/disk/jenkins2/ci/workspace/chipset_component_FRD_b160_Open_Source/component_code/vendor/huawei/extra/build/build_script/austin_kernel_release/kernel/arch/arm64/include/asm/compat.h"
	.file 15 "/mnt/disk/jenkins2/ci/workspace/chipset_component_FRD_b160_Open_Source/component_code/vendor/huawei/extra/build/build_script/austin_kernel_release/kernel/include/uapi/asm-generic/poll.h"
	.file 16 "/mnt/disk/jenkins2/ci/workspace/chipset_component_FRD_b160_Open_Source/component_code/vendor/huawei/extra/build/build_script/austin_kernel_release/kernel/include/linux/sched.h"
	.file 17 "/mnt/disk/jenkins2/ci/workspace/chipset_component_FRD_b160_Open_Source/component_code/vendor/huawei/extra/build/build_script/austin_kernel_release/kernel/arch/arm64/include/uapi/asm/ptrace.h"
	.file 18 "/mnt/disk/jenkins2/ci/workspace/chipset_component_FRD_b160_Open_Source/component_code/vendor/huawei/extra/build/build_script/austin_kernel_release/kernel/arch/arm64/include/asm/spinlock_types.h"
	.file 19 "/mnt/disk/jenkins2/ci/workspace/chipset_component_FRD_b160_Open_Source/component_code/vendor/huawei/extra/build/build_script/austin_kernel_release/kernel/include/linux/spinlock_types.h"
	.file 20 "/mnt/disk/jenkins2/ci/workspace/chipset_component_FRD_b160_Open_Source/component_code/vendor/huawei/extra/build/build_script/austin_kernel_release/kernel/include/linux/rwlock_types.h"
	.file 21 "/mnt/disk/jenkins2/ci/workspace/chipset_component_FRD_b160_Open_Source/component_code/vendor/huawei/extra/build/build_script/austin_kernel_release/kernel/arch/arm64/include/asm/fpsimd.h"
	.file 22 "/mnt/disk/jenkins2/ci/workspace/chipset_component_FRD_b160_Open_Source/component_code/vendor/huawei/extra/build/build_script/austin_kernel_release/kernel/arch/arm64/include/asm/processor.h"
	.file 23 "/mnt/disk/jenkins2/ci/workspace/chipset_component_FRD_b160_Open_Source/component_code/vendor/huawei/extra/build/build_script/austin_kernel_release/kernel/include/asm-generic/atomic-long.h"
	.file 24 "/mnt/disk/jenkins2/ci/workspace/chipset_component_FRD_b160_Open_Source/component_code/vendor/huawei/extra/build/build_script/austin_kernel_release/kernel/include/linux/seqlock.h"
	.file 25 "/mnt/disk/jenkins2/ci/workspace/chipset_component_FRD_b160_Open_Source/component_code/vendor/huawei/extra/build/build_script/austin_kernel_release/kernel/include/linux/plist.h"
	.file 26 "/mnt/disk/jenkins2/ci/workspace/chipset_component_FRD_b160_Open_Source/component_code/vendor/huawei/extra/build/build_script/austin_kernel_release/kernel/include/linux/rbtree.h"
	.file 27 "/mnt/disk/jenkins2/ci/workspace/chipset_component_FRD_b160_Open_Source/component_code/vendor/huawei/extra/build/build_script/austin_kernel_release/kernel/include/linux/cpumask.h"
	.file 28 "/mnt/disk/jenkins2/ci/workspace/chipset_component_FRD_b160_Open_Source/component_code/vendor/huawei/extra/build/build_script/austin_kernel_release/kernel/include/linux/nodemask.h"
	.file 29 "/mnt/disk/jenkins2/ci/workspace/chipset_component_FRD_b160_Open_Source/component_code/vendor/huawei/extra/build/build_script/austin_kernel_release/kernel/include/linux/osq_lock.h"
	.file 30 "/mnt/disk/jenkins2/ci/workspace/chipset_component_FRD_b160_Open_Source/component_code/vendor/huawei/extra/build/build_script/austin_kernel_release/kernel/include/linux/rwsem.h"
	.file 31 "/mnt/disk/jenkins2/ci/workspace/chipset_component_FRD_b160_Open_Source/component_code/vendor/huawei/extra/build/build_script/austin_kernel_release/kernel/include/linux/wait.h"
	.file 32 "/mnt/disk/jenkins2/ci/workspace/chipset_component_FRD_b160_Open_Source/component_code/vendor/huawei/extra/build/build_script/austin_kernel_release/kernel/include/linux/completion.h"
	.file 33 "/mnt/disk/jenkins2/ci/workspace/chipset_component_FRD_b160_Open_Source/component_code/vendor/huawei/extra/build/build_script/austin_kernel_release/kernel/include/linux/mm_types.h"
	.file 34 "/mnt/disk/jenkins2/ci/workspace/chipset_component_FRD_b160_Open_Source/component_code/vendor/huawei/extra/build/build_script/austin_kernel_release/kernel/include/linux/lockdep.h"
	.file 35 "/mnt/disk/jenkins2/ci/workspace/chipset_component_FRD_b160_Open_Source/component_code/vendor/huawei/extra/build/build_script/austin_kernel_release/kernel/include/linux/uprobes.h"
	.file 36 "/mnt/disk/jenkins2/ci/workspace/chipset_component_FRD_b160_Open_Source/component_code/vendor/huawei/extra/build/build_script/austin_kernel_release/kernel/arch/arm64/include/asm/pgtable-types.h"
	.file 37 "/mnt/disk/jenkins2/ci/workspace/chipset_component_FRD_b160_Open_Source/component_code/vendor/huawei/extra/build/build_script/austin_kernel_release/kernel/arch/arm64/include/asm/mmu.h"
	.file 38 "/mnt/disk/jenkins2/ci/workspace/chipset_component_FRD_b160_Open_Source/component_code/vendor/huawei/extra/build/build_script/austin_kernel_release/kernel/include/linux/fs.h"
	.file 39 "/mnt/disk/jenkins2/ci/workspace/chipset_component_FRD_b160_Open_Source/component_code/vendor/huawei/extra/build/build_script/austin_kernel_release/kernel/include/linux/mm.h"
	.file 40 "/mnt/disk/jenkins2/ci/workspace/chipset_component_FRD_b160_Open_Source/component_code/vendor/huawei/extra/build/build_script/austin_kernel_release/kernel/include/asm-generic/cputime_jiffies.h"
	.file 41 "/mnt/disk/jenkins2/ci/workspace/chipset_component_FRD_b160_Open_Source/component_code/vendor/huawei/extra/build/build_script/austin_kernel_release/kernel/include/linux/llist.h"
	.file 42 "/mnt/disk/jenkins2/ci/workspace/chipset_component_FRD_b160_Open_Source/component_code/vendor/huawei/extra/build/build_script/austin_kernel_release/kernel/include/linux/uidgid.h"
	.file 43 "/mnt/disk/jenkins2/ci/workspace/chipset_component_FRD_b160_Open_Source/component_code/vendor/huawei/extra/build/build_script/austin_kernel_release/kernel/include/linux/sem.h"
	.file 44 "/mnt/disk/jenkins2/ci/workspace/chipset_component_FRD_b160_Open_Source/component_code/vendor/huawei/extra/build/build_script/austin_kernel_release/kernel/include/linux/shm.h"
	.file 45 "/mnt/disk/jenkins2/ci/workspace/chipset_component_FRD_b160_Open_Source/component_code/vendor/huawei/extra/build/build_script/austin_kernel_release/kernel/include/uapi/asm-generic/signal.h"
	.file 46 "/mnt/disk/jenkins2/ci/workspace/chipset_component_FRD_b160_Open_Source/component_code/vendor/huawei/extra/build/build_script/austin_kernel_release/kernel/include/uapi/asm-generic/signal-defs.h"
	.file 47 "/mnt/disk/jenkins2/ci/workspace/chipset_component_FRD_b160_Open_Source/component_code/vendor/huawei/extra/build/build_script/austin_kernel_release/kernel/include/uapi/asm-generic/siginfo.h"
	.file 48 "/mnt/disk/jenkins2/ci/workspace/chipset_component_FRD_b160_Open_Source/component_code/vendor/huawei/extra/build/build_script/austin_kernel_release/kernel/include/linux/signal.h"
	.file 49 "/mnt/disk/jenkins2/ci/workspace/chipset_component_FRD_b160_Open_Source/component_code/vendor/huawei/extra/build/build_script/austin_kernel_release/kernel/include/linux/pid.h"
	.file 50 "/mnt/disk/jenkins2/ci/workspace/chipset_component_FRD_b160_Open_Source/component_code/vendor/huawei/extra/build/build_script/austin_kernel_release/kernel/include/linux/pid_namespace.h"
	.file 51 "/mnt/disk/jenkins2/ci/workspace/chipset_component_FRD_b160_Open_Source/component_code/vendor/huawei/extra/build/build_script/austin_kernel_release/kernel/include/linux/mmzone.h"
	.file 52 "/mnt/disk/jenkins2/ci/workspace/chipset_component_FRD_b160_Open_Source/component_code/vendor/huawei/extra/build/build_script/austin_kernel_release/kernel/include/linux/mutex.h"
	.file 53 "/mnt/disk/jenkins2/ci/workspace/chipset_component_FRD_b160_Open_Source/component_code/vendor/huawei/extra/build/build_script/austin_kernel_release/kernel/include/linux/ktime.h"
	.file 54 "/mnt/disk/jenkins2/ci/workspace/chipset_component_FRD_b160_Open_Source/component_code/vendor/huawei/extra/build/build_script/austin_kernel_release/kernel/include/linux/timer.h"
	.file 55 "/mnt/disk/jenkins2/ci/workspace/chipset_component_FRD_b160_Open_Source/component_code/vendor/huawei/extra/build/build_script/austin_kernel_release/kernel/include/linux/workqueue.h"
	.file 56 "/mnt/disk/jenkins2/ci/workspace/chipset_component_FRD_b160_Open_Source/component_code/vendor/huawei/extra/build/build_script/austin_kernel_release/kernel/include/linux/notifier.h"
	.file 57 "/mnt/disk/jenkins2/ci/workspace/chipset_component_FRD_b160_Open_Source/component_code/vendor/huawei/extra/build/build_script/austin_kernel_release/kernel/include/linux/percpu_counter.h"
	.file 58 "/mnt/disk/jenkins2/ci/workspace/chipset_component_FRD_b160_Open_Source/component_code/vendor/huawei/extra/build/build_script/austin_kernel_release/kernel/include/linux/seccomp.h"
	.file 59 "/mnt/disk/jenkins2/ci/workspace/chipset_component_FRD_b160_Open_Source/component_code/vendor/huawei/extra/build/build_script/austin_kernel_release/kernel/include/uapi/linux/resource.h"
	.file 60 "/mnt/disk/jenkins2/ci/workspace/chipset_component_FRD_b160_Open_Source/component_code/vendor/huawei/extra/build/build_script/austin_kernel_release/kernel/include/linux/timerqueue.h"
	.file 61 "/mnt/disk/jenkins2/ci/workspace/chipset_component_FRD_b160_Open_Source/component_code/vendor/huawei/extra/build/build_script/austin_kernel_release/kernel/include/linux/hrtimer.h"
	.file 62 "/mnt/disk/jenkins2/ci/workspace/chipset_component_FRD_b160_Open_Source/component_code/vendor/huawei/extra/build/build_script/austin_kernel_release/kernel/include/linux/task_io_accounting.h"
	.file 63 "/mnt/disk/jenkins2/ci/workspace/chipset_component_FRD_b160_Open_Source/component_code/vendor/huawei/extra/build/build_script/austin_kernel_release/kernel/include/linux/sysctl.h"
	.file 64 "/mnt/disk/jenkins2/ci/workspace/chipset_component_FRD_b160_Open_Source/component_code/vendor/huawei/extra/build/build_script/austin_kernel_release/kernel/include/linux/nsproxy.h"
	.file 65 "/mnt/disk/jenkins2/ci/workspace/chipset_component_FRD_b160_Open_Source/component_code/vendor/huawei/extra/build/build_script/austin_kernel_release/kernel/include/linux/assoc_array.h"
	.file 66 "/mnt/disk/jenkins2/ci/workspace/chipset_component_FRD_b160_Open_Source/component_code/vendor/huawei/extra/build/build_script/austin_kernel_release/kernel/include/linux/key.h"
	.file 67 "/mnt/disk/jenkins2/ci/workspace/chipset_component_FRD_b160_Open_Source/component_code/vendor/huawei/extra/build/build_script/austin_kernel_release/kernel/include/linux/cred.h"
	.file 68 "/mnt/disk/jenkins2/ci/workspace/chipset_component_FRD_b160_Open_Source/component_code/vendor/huawei/extra/build/build_script/austin_kernel_release/kernel/include/uapi/linux/taskstats.h"
	.file 69 "/mnt/disk/jenkins2/ci/workspace/chipset_component_FRD_b160_Open_Source/component_code/vendor/huawei/extra/build/build_script/austin_kernel_release/kernel/include/linux/cgroup-defs.h"
	.file 70 "/mnt/disk/jenkins2/ci/workspace/chipset_component_FRD_b160_Open_Source/component_code/vendor/huawei/extra/build/build_script/austin_kernel_release/kernel/include/linux/compat.h"
	.file 71 "/mnt/disk/jenkins2/ci/workspace/chipset_component_FRD_b160_Open_Source/component_code/vendor/huawei/extra/build/build_script/austin_kernel_release/kernel/include/linux/shrinker.h"
	.file 72 "/mnt/disk/jenkins2/ci/workspace/chipset_component_FRD_b160_Open_Source/component_code/vendor/huawei/extra/build/build_script/austin_kernel_release/kernel/include/linux/vmstat.h"
	.file 73 "/mnt/disk/jenkins2/ci/workspace/chipset_component_FRD_b160_Open_Source/component_code/vendor/huawei/extra/build/build_script/austin_kernel_release/kernel/include/net/net_namespace.h"
	.file 74 "/mnt/disk/jenkins2/ci/workspace/chipset_component_FRD_b160_Open_Source/component_code/vendor/huawei/extra/build/build_script/austin_kernel_release/kernel/include/linux/kref.h"
	.file 75 "/mnt/disk/jenkins2/ci/workspace/chipset_component_FRD_b160_Open_Source/component_code/vendor/huawei/extra/build/build_script/austin_kernel_release/kernel/include/linux/ns_common.h"
	.file 76 "/mnt/disk/jenkins2/ci/workspace/chipset_component_FRD_b160_Open_Source/component_code/vendor/huawei/extra/build/build_script/austin_kernel_release/kernel/include/linux/dcache.h"
	.file 77 "/mnt/disk/jenkins2/ci/workspace/chipset_component_FRD_b160_Open_Source/component_code/vendor/huawei/extra/build/build_script/austin_kernel_release/kernel/include/linux/stat.h"
	.file 78 "/mnt/disk/jenkins2/ci/workspace/chipset_component_FRD_b160_Open_Source/component_code/vendor/huawei/extra/build/build_script/austin_kernel_release/kernel/include/uapi/linux/elf.h"
	.file 79 "/mnt/disk/jenkins2/ci/workspace/chipset_component_FRD_b160_Open_Source/component_code/vendor/huawei/extra/build/build_script/austin_kernel_release/kernel/include/linux/idr.h"
	.file 80 "/mnt/disk/jenkins2/ci/workspace/chipset_component_FRD_b160_Open_Source/component_code/vendor/huawei/extra/build/build_script/austin_kernel_release/kernel/include/linux/kernfs.h"
	.file 81 "/mnt/disk/jenkins2/ci/workspace/chipset_component_FRD_b160_Open_Source/component_code/vendor/huawei/extra/build/build_script/austin_kernel_release/kernel/include/linux/seq_file.h"
	.file 82 "/mnt/disk/jenkins2/ci/workspace/chipset_component_FRD_b160_Open_Source/component_code/vendor/huawei/extra/build/build_script/austin_kernel_release/kernel/include/linux/kobject_ns.h"
	.file 83 "/mnt/disk/jenkins2/ci/workspace/chipset_component_FRD_b160_Open_Source/component_code/vendor/huawei/extra/build/build_script/austin_kernel_release/kernel/include/net/sock.h"
	.file 84 "/mnt/disk/jenkins2/ci/workspace/chipset_component_FRD_b160_Open_Source/component_code/vendor/huawei/extra/build/build_script/austin_kernel_release/kernel/include/linux/sysfs.h"
	.file 85 "/mnt/disk/jenkins2/ci/workspace/chipset_component_FRD_b160_Open_Source/component_code/vendor/huawei/extra/build/build_script/austin_kernel_release/kernel/include/linux/kobject.h"
	.file 86 "/mnt/disk/jenkins2/ci/workspace/chipset_component_FRD_b160_Open_Source/component_code/vendor/huawei/extra/build/build_script/austin_kernel_release/kernel/include/linux/moduleparam.h"
	.file 87 "/mnt/disk/jenkins2/ci/workspace/chipset_component_FRD_b160_Open_Source/component_code/vendor/huawei/extra/build/build_script/austin_kernel_release/kernel/include/linux/jump_label.h"
	.file 88 "/mnt/disk/jenkins2/ci/workspace/chipset_component_FRD_b160_Open_Source/component_code/vendor/huawei/extra/build/build_script/austin_kernel_release/kernel/include/asm-generic/module.h"
	.file 89 "/mnt/disk/jenkins2/ci/workspace/chipset_component_FRD_b160_Open_Source/component_code/vendor/huawei/extra/build/build_script/austin_kernel_release/kernel/include/linux/module.h"
	.file 90 "/mnt/disk/jenkins2/ci/workspace/chipset_component_FRD_b160_Open_Source/component_code/vendor/huawei/extra/build/build_script/austin_kernel_release/kernel/arch/arm64/include/asm/uaccess.h"
	.file 91 "/mnt/disk/jenkins2/ci/workspace/chipset_component_FRD_b160_Open_Source/component_code/vendor/huawei/extra/build/build_script/austin_kernel_release/kernel/include/linux/klist.h"
	.file 92 "/mnt/disk/jenkins2/ci/workspace/chipset_component_FRD_b160_Open_Source/component_code/vendor/huawei/extra/build/build_script/austin_kernel_release/kernel/include/linux/pinctrl/devinfo.h"
	.file 93 "/mnt/disk/jenkins2/ci/workspace/chipset_component_FRD_b160_Open_Source/component_code/vendor/huawei/extra/build/build_script/austin_kernel_release/kernel/include/linux/pm.h"
	.file 94 "/mnt/disk/jenkins2/ci/workspace/chipset_component_FRD_b160_Open_Source/component_code/vendor/huawei/extra/build/build_script/austin_kernel_release/kernel/include/linux/device.h"
	.file 95 "/mnt/disk/jenkins2/ci/workspace/chipset_component_FRD_b160_Open_Source/component_code/vendor/huawei/extra/build/build_script/austin_kernel_release/kernel/include/linux/pm_wakeup.h"
	.file 96 "/mnt/disk/jenkins2/ci/workspace/chipset_component_FRD_b160_Open_Source/component_code/vendor/huawei/extra/build/build_script/austin_kernel_release/kernel/arch/arm64/include/asm/device.h"
	.file 97 "/mnt/disk/jenkins2/ci/workspace/chipset_component_FRD_b160_Open_Source/component_code/vendor/huawei/extra/build/build_script/austin_kernel_release/kernel/include/linux/dma-mapping.h"
	.file 98 "/mnt/disk/jenkins2/ci/workspace/chipset_component_FRD_b160_Open_Source/component_code/vendor/huawei/extra/build/build_script/austin_kernel_release/kernel/include/linux/mod_devicetable.h"
	.file 99 "/mnt/disk/jenkins2/ci/workspace/chipset_component_FRD_b160_Open_Source/component_code/vendor/huawei/extra/build/build_script/austin_kernel_release/kernel/include/linux/of.h"
	.file 100 "/mnt/disk/jenkins2/ci/workspace/chipset_component_FRD_b160_Open_Source/component_code/vendor/huawei/extra/build/build_script/austin_kernel_release/kernel/include/linux/fwnode.h"
	.file 101 "/mnt/disk/jenkins2/ci/workspace/chipset_component_FRD_b160_Open_Source/component_code/vendor/huawei/extra/build/build_script/austin_kernel_release/kernel/include/uapi/linux/uio.h"
	.file 102 "/mnt/disk/jenkins2/ci/workspace/chipset_component_FRD_b160_Open_Source/component_code/vendor/huawei/extra/build/build_script/austin_kernel_release/kernel/include/linux/uio.h"
	.file 103 "/mnt/disk/jenkins2/ci/workspace/chipset_component_FRD_b160_Open_Source/component_code/vendor/huawei/extra/build/build_script/austin_kernel_release/kernel/include/linux/blk_types.h"
	.file 104 "/mnt/disk/jenkins2/ci/workspace/chipset_component_FRD_b160_Open_Source/component_code/vendor/huawei/extra/build/build_script/austin_kernel_release/kernel/include/asm-generic/scatterlist.h"
	.file 105 "/mnt/disk/jenkins2/ci/workspace/chipset_component_FRD_b160_Open_Source/component_code/vendor/huawei/extra/build/build_script/austin_kernel_release/kernel/include/linux/scatterlist.h"
	.file 106 "/mnt/disk/jenkins2/ci/workspace/chipset_component_FRD_b160_Open_Source/component_code/vendor/huawei/extra/build/build_script/austin_kernel_release/kernel/include/linux/dynamic_queue_limits.h"
	.file 107 "/mnt/disk/jenkins2/ci/workspace/chipset_component_FRD_b160_Open_Source/component_code/vendor/huawei/extra/build/build_script/austin_kernel_release/kernel/include/uapi/linux/socket.h"
	.file 108 "/mnt/disk/jenkins2/ci/workspace/chipset_component_FRD_b160_Open_Source/component_code/vendor/huawei/extra/build/build_script/austin_kernel_release/kernel/include/linux/socket.h"
	.file 109 "/mnt/disk/jenkins2/ci/workspace/chipset_component_FRD_b160_Open_Source/component_code/vendor/huawei/extra/build/build_script/austin_kernel_release/kernel/include/uapi/linux/hdlc/ioctl.h"
	.file 110 "/mnt/disk/jenkins2/ci/workspace/chipset_component_FRD_b160_Open_Source/component_code/vendor/huawei/extra/build/build_script/austin_kernel_release/kernel/include/uapi/linux/if.h"
	.file 111 "/mnt/disk/jenkins2/ci/workspace/chipset_component_FRD_b160_Open_Source/component_code/vendor/huawei/extra/build/build_script/austin_kernel_release/kernel/include/linux/list_bl.h"
	.file 112 "/mnt/disk/jenkins2/ci/workspace/chipset_component_FRD_b160_Open_Source/component_code/vendor/huawei/extra/build/build_script/austin_kernel_release/kernel/include/linux/lockref.h"
	.file 113 "/mnt/disk/jenkins2/ci/workspace/chipset_component_FRD_b160_Open_Source/component_code/vendor/huawei/extra/build/build_script/austin_kernel_release/kernel/include/linux/path.h"
	.file 114 "/mnt/disk/jenkins2/ci/workspace/chipset_component_FRD_b160_Open_Source/component_code/vendor/huawei/extra/build/build_script/austin_kernel_release/kernel/include/linux/list_lru.h"
	.file 115 "/mnt/disk/jenkins2/ci/workspace/chipset_component_FRD_b160_Open_Source/component_code/vendor/huawei/extra/build/build_script/austin_kernel_release/kernel/include/linux/radix-tree.h"
	.file 116 "/mnt/disk/jenkins2/ci/workspace/chipset_component_FRD_b160_Open_Source/component_code/vendor/huawei/extra/build/build_script/austin_kernel_release/kernel/include/uapi/linux/fiemap.h"
	.file 117 "/mnt/disk/jenkins2/ci/workspace/chipset_component_FRD_b160_Open_Source/component_code/vendor/huawei/extra/build/build_script/austin_kernel_release/kernel/include/linux/migrate_mode.h"
	.file 118 "/mnt/disk/jenkins2/ci/workspace/chipset_component_FRD_b160_Open_Source/component_code/vendor/huawei/extra/build/build_script/austin_kernel_release/kernel/include/linux/quota.h"
	.file 119 "/mnt/disk/jenkins2/ci/workspace/chipset_component_FRD_b160_Open_Source/component_code/vendor/huawei/extra/build/build_script/austin_kernel_release/kernel/include/linux/projid.h"
	.file 120 "/mnt/disk/jenkins2/ci/workspace/chipset_component_FRD_b160_Open_Source/component_code/vendor/huawei/extra/build/build_script/austin_kernel_release/kernel/include/linux/nfs_fs_i.h"
	.file 121 "/mnt/disk/jenkins2/ci/workspace/chipset_component_FRD_b160_Open_Source/component_code/vendor/huawei/extra/build/build_script/austin_kernel_release/kernel/include/linux/poll.h"
	.file 122 "/mnt/disk/jenkins2/ci/workspace/chipset_component_FRD_b160_Open_Source/component_code/vendor/huawei/extra/build/build_script/austin_kernel_release/kernel/include/linux/stddef.h"
	.file 123 "/mnt/disk/jenkins2/ci/workspace/chipset_component_FRD_b160_Open_Source/component_code/vendor/huawei/extra/build/build_script/austin_kernel_release/kernel/include/uapi/linux/net.h"
	.file 124 "/mnt/disk/jenkins2/ci/workspace/chipset_component_FRD_b160_Open_Source/component_code/vendor/huawei/extra/build/build_script/austin_kernel_release/kernel/include/linux/net.h"
	.file 125 "/mnt/disk/jenkins2/ci/workspace/chipset_component_FRD_b160_Open_Source/component_code/vendor/huawei/extra/build/build_script/austin_kernel_release/kernel/include/linux/dma-attrs.h"
	.file 126 "/mnt/disk/jenkins2/ci/workspace/chipset_component_FRD_b160_Open_Source/component_code/vendor/huawei/extra/build/build_script/austin_kernel_release/kernel/include/linux/dma-direction.h"
	.file 127 "/mnt/disk/jenkins2/ci/workspace/chipset_component_FRD_b160_Open_Source/component_code/vendor/huawei/extra/build/build_script/austin_kernel_release/kernel/include/linux/netdev_features.h"
	.file 128 "/mnt/disk/jenkins2/ci/workspace/chipset_component_FRD_b160_Open_Source/component_code/vendor/huawei/extra/build/build_script/austin_kernel_release/kernel/include/linux/skbuff.h"
	.file 129 "/mnt/disk/jenkins2/ci/workspace/chipset_component_FRD_b160_Open_Source/component_code/vendor/huawei/extra/build/build_script/austin_kernel_release/kernel/include/linux/netdevice.h"
	.file 130 "/mnt/disk/jenkins2/ci/workspace/chipset_component_FRD_b160_Open_Source/component_code/vendor/huawei/extra/build/build_script/austin_kernel_release/kernel/include/uapi/linux/if_ether.h"
	.file 131 "/mnt/disk/jenkins2/ci/workspace/chipset_component_FRD_b160_Open_Source/component_code/vendor/huawei/extra/build/build_script/austin_kernel_release/kernel/include/uapi/linux/ethtool.h"
	.file 132 "/mnt/disk/jenkins2/ci/workspace/chipset_component_FRD_b160_Open_Source/component_code/vendor/huawei/extra/build/build_script/austin_kernel_release/kernel/include/linux/ethtool.h"
	.file 133 "/mnt/disk/jenkins2/ci/workspace/chipset_component_FRD_b160_Open_Source/component_code/vendor/huawei/extra/build/build_script/austin_kernel_release/kernel/include/uapi/linux/in6.h"
	.file 134 "/mnt/disk/jenkins2/ci/workspace/chipset_component_FRD_b160_Open_Source/component_code/vendor/huawei/extra/build/build_script/austin_kernel_release/kernel/include/net/flow.h"
	.file 135 "/mnt/disk/jenkins2/ci/workspace/chipset_component_FRD_b160_Open_Source/component_code/vendor/huawei/extra/build/build_script/austin_kernel_release/kernel/include/net/netns/core.h"
	.file 136 "/mnt/disk/jenkins2/ci/workspace/chipset_component_FRD_b160_Open_Source/component_code/vendor/huawei/extra/build/build_script/austin_kernel_release/kernel/include/linux/u64_stats_sync.h"
	.file 137 "/mnt/disk/jenkins2/ci/workspace/chipset_component_FRD_b160_Open_Source/component_code/vendor/huawei/extra/build/build_script/austin_kernel_release/kernel/include/net/snmp.h"
	.file 138 "/mnt/disk/jenkins2/ci/workspace/chipset_component_FRD_b160_Open_Source/component_code/vendor/huawei/extra/build/build_script/austin_kernel_release/kernel/include/net/netns/mib.h"
	.file 139 "/mnt/disk/jenkins2/ci/workspace/chipset_component_FRD_b160_Open_Source/component_code/vendor/huawei/extra/build/build_script/austin_kernel_release/kernel/include/net/netns/unix.h"
	.file 140 "/mnt/disk/jenkins2/ci/workspace/chipset_component_FRD_b160_Open_Source/component_code/vendor/huawei/extra/build/build_script/austin_kernel_release/kernel/include/net/netns/packet.h"
	.file 141 "/mnt/disk/jenkins2/ci/workspace/chipset_component_FRD_b160_Open_Source/component_code/vendor/huawei/extra/build/build_script/austin_kernel_release/kernel/include/net/inet_frag.h"
	.file 142 "/mnt/disk/jenkins2/ci/workspace/chipset_component_FRD_b160_Open_Source/component_code/vendor/huawei/extra/build/build_script/austin_kernel_release/kernel/include/net/netns/ipv4.h"
	.file 143 "/mnt/disk/jenkins2/ci/workspace/chipset_component_FRD_b160_Open_Source/component_code/vendor/huawei/extra/build/build_script/austin_kernel_release/kernel/include/net/dst_ops.h"
	.file 144 "/mnt/disk/jenkins2/ci/workspace/chipset_component_FRD_b160_Open_Source/component_code/vendor/huawei/extra/build/build_script/austin_kernel_release/kernel/include/net/dst.h"
	.file 145 "/mnt/disk/jenkins2/ci/workspace/chipset_component_FRD_b160_Open_Source/component_code/vendor/huawei/extra/build/build_script/austin_kernel_release/kernel/include/net/neighbour.h"
	.file 146 "/mnt/disk/jenkins2/ci/workspace/chipset_component_FRD_b160_Open_Source/component_code/vendor/huawei/extra/build/build_script/austin_kernel_release/kernel/include/net/netns/ipv6.h"
	.file 147 "/mnt/disk/jenkins2/ci/workspace/chipset_component_FRD_b160_Open_Source/component_code/vendor/huawei/extra/build/build_script/austin_kernel_release/kernel/include/uapi/linux/netfilter.h"
	.file 148 "/mnt/disk/jenkins2/ci/workspace/chipset_component_FRD_b160_Open_Source/component_code/vendor/huawei/extra/build/build_script/austin_kernel_release/kernel/include/linux/netfilter.h"
	.file 149 "/mnt/disk/jenkins2/ci/workspace/chipset_component_FRD_b160_Open_Source/component_code/vendor/huawei/extra/build/build_script/austin_kernel_release/kernel/include/uapi/linux/netlink.h"
	.file 150 "/mnt/disk/jenkins2/ci/workspace/chipset_component_FRD_b160_Open_Source/component_code/vendor/huawei/extra/build/build_script/austin_kernel_release/kernel/include/net/netns/netfilter.h"
	.file 151 "/mnt/disk/jenkins2/ci/workspace/chipset_component_FRD_b160_Open_Source/component_code/vendor/huawei/extra/build/build_script/austin_kernel_release/kernel/include/net/netns/x_tables.h"
	.file 152 "/mnt/disk/jenkins2/ci/workspace/chipset_component_FRD_b160_Open_Source/component_code/vendor/huawei/extra/build/build_script/austin_kernel_release/kernel/include/linux/list_nulls.h"
	.file 153 "/mnt/disk/jenkins2/ci/workspace/chipset_component_FRD_b160_Open_Source/component_code/vendor/huawei/extra/build/build_script/austin_kernel_release/kernel/include/uapi/linux/netfilter/nf_conntrack_tcp.h"
	.file 154 "/mnt/disk/jenkins2/ci/workspace/chipset_component_FRD_b160_Open_Source/component_code/vendor/huawei/extra/build/build_script/austin_kernel_release/kernel/include/net/netns/conntrack.h"
	.file 155 "/mnt/disk/jenkins2/ci/workspace/chipset_component_FRD_b160_Open_Source/component_code/vendor/huawei/extra/build/build_script/austin_kernel_release/kernel/include/net/netns/nftables.h"
	.file 156 "/mnt/disk/jenkins2/ci/workspace/chipset_component_FRD_b160_Open_Source/component_code/vendor/huawei/extra/build/build_script/austin_kernel_release/kernel/include/uapi/linux/xfrm.h"
	.file 157 "/mnt/disk/jenkins2/ci/workspace/chipset_component_FRD_b160_Open_Source/component_code/vendor/huawei/extra/build/build_script/austin_kernel_release/kernel/include/linux/interrupt.h"
	.file 158 "/mnt/disk/jenkins2/ci/workspace/chipset_component_FRD_b160_Open_Source/component_code/vendor/huawei/extra/build/build_script/austin_kernel_release/kernel/include/net/flowcache.h"
	.file 159 "/mnt/disk/jenkins2/ci/workspace/chipset_component_FRD_b160_Open_Source/component_code/vendor/huawei/extra/build/build_script/austin_kernel_release/kernel/include/net/netns/xfrm.h"
	.file 160 "/mnt/disk/jenkins2/ci/workspace/chipset_component_FRD_b160_Open_Source/component_code/vendor/huawei/extra/build/build_script/austin_kernel_release/kernel/include/linux/phy.h"
	.file 161 "/mnt/disk/jenkins2/ci/workspace/chipset_component_FRD_b160_Open_Source/component_code/vendor/huawei/extra/build/build_script/austin_kernel_release/kernel/include/linux/percpu-refcount.h"
	.file 162 "/mnt/disk/jenkins2/ci/workspace/chipset_component_FRD_b160_Open_Source/component_code/vendor/huawei/extra/build/build_script/austin_kernel_release/kernel/include/net/request_sock.h"
	.file 163 "/mnt/disk/jenkins2/ci/workspace/chipset_component_FRD_b160_Open_Source/component_code/vendor/huawei/extra/build/build_script/austin_kernel_release/kernel/include/linux/netlink.h"
	.file 164 "/mnt/disk/jenkins2/ci/workspace/chipset_component_FRD_b160_Open_Source/component_code/vendor/huawei/extra/build/build_script/austin_kernel_release/kernel/include/uapi/linux/neighbour.h"
	.file 165 "/mnt/disk/jenkins2/ci/workspace/chipset_component_FRD_b160_Open_Source/component_code/vendor/huawei/extra/build/build_script/austin_kernel_release/kernel/include/uapi/linux/if_link.h"
	.file 166 "/mnt/disk/jenkins2/ci/workspace/chipset_component_FRD_b160_Open_Source/component_code/vendor/huawei/extra/build/build_script/austin_kernel_release/kernel/include/linux/if_link.h"
	.file 167 "/mnt/disk/jenkins2/ci/workspace/chipset_component_FRD_b160_Open_Source/component_code/vendor/huawei/extra/build/build_script/austin_kernel_release/kernel/include/net/rtnetlink.h"
	.file 168 "/mnt/disk/jenkins2/ci/workspace/chipset_component_FRD_b160_Open_Source/component_code/vendor/huawei/extra/build/build_script/austin_kernel_release/kernel/include/linux/page_counter.h"
	.file 169 "/mnt/disk/jenkins2/ci/workspace/chipset_component_FRD_b160_Open_Source/component_code/vendor/huawei/extra/build/build_script/austin_kernel_release/kernel/include/uapi/linux/filter.h"
	.file 170 "/mnt/disk/jenkins2/ci/workspace/chipset_component_FRD_b160_Open_Source/component_code/vendor/huawei/extra/build/build_script/austin_kernel_release/kernel/include/uapi/linux/bpf.h"
	.file 171 "/mnt/disk/jenkins2/ci/workspace/chipset_component_FRD_b160_Open_Source/component_code/vendor/huawei/extra/build/build_script/austin_kernel_release/kernel/include/linux/filter.h"
	.file 172 "/mnt/disk/jenkins2/ci/workspace/chipset_component_FRD_b160_Open_Source/component_code/vendor/huawei/extra/build/build_script/austin_kernel_release/kernel/include/net/netlink.h"
	.file 173 "/mnt/disk/jenkins2/ci/workspace/chipset_component_FRD_b160_Open_Source/component_code/vendor/huawei/extra/build/build_script/austin_kernel_release/kernel/include/net/timewait_sock.h"
	.file 174 "/mnt/disk/jenkins2/ci/workspace/chipset_component_FRD_b160_Open_Source/component_code/vendor/huawei/extra/build/build_script/austin_kernel_release/kernel/drivers/huawei_platform/net/hw_netfilter/nf_app_dl_monitor.h"
	.file 175 "/mnt/disk/jenkins2/ci/workspace/chipset_component_FRD_b160_Open_Source/component_code/vendor/huawei/extra/build/build_script/austin_kernel_release/kernel/include/asm-generic/bitops/builtin-__fls.h"
	.file 176 "/mnt/disk/jenkins2/ci/workspace/chipset_component_FRD_b160_Open_Source/component_code/vendor/huawei/extra/build/build_script/austin_kernel_release/kernel/include/asm-generic/bitops/fls64.h"
	.file 177 "/mnt/disk/jenkins2/ci/workspace/chipset_component_FRD_b160_Open_Source/component_code/vendor/huawei/extra/build/build_script/austin_kernel_release/kernel/include/linux/log2.h"
	.file 178 "/mnt/disk/jenkins2/ci/workspace/chipset_component_FRD_b160_Open_Source/component_code/vendor/huawei/extra/build/build_script/austin_kernel_release/kernel/include/asm-generic/getorder.h"
	.file 179 "/mnt/disk/jenkins2/ci/workspace/chipset_component_FRD_b160_Open_Source/component_code/vendor/huawei/extra/build/build_script/austin_kernel_release/kernel/arch/arm64/include/asm/cachetype.h"
	.file 180 "/mnt/disk/jenkins2/ci/workspace/chipset_component_FRD_b160_Open_Source/component_code/vendor/huawei/extra/build/build_script/austin_kernel_release/kernel/include/linux/printk.h"
	.file 181 "/mnt/disk/jenkins2/ci/workspace/chipset_component_FRD_b160_Open_Source/component_code/vendor/huawei/extra/build/build_script/austin_kernel_release/kernel/include/linux/kernel.h"
	.file 182 "/mnt/disk/jenkins2/ci/workspace/chipset_component_FRD_b160_Open_Source/component_code/vendor/huawei/extra/build/build_script/austin_kernel_release/kernel/arch/arm64/include/asm/thread_info.h"
	.file 183 "/mnt/disk/jenkins2/ci/workspace/chipset_component_FRD_b160_Open_Source/component_code/vendor/huawei/extra/build/build_script/austin_kernel_release/kernel/arch/arm64/include/asm/hwcap.h"
	.file 184 "/mnt/disk/jenkins2/ci/workspace/chipset_component_FRD_b160_Open_Source/component_code/vendor/huawei/extra/build/build_script/austin_kernel_release/kernel/include/linux/jiffies.h"
	.file 185 "/mnt/disk/jenkins2/ci/workspace/chipset_component_FRD_b160_Open_Source/component_code/vendor/huawei/extra/build/build_script/austin_kernel_release/kernel/arch/arm64/include/asm/memory.h"
	.file 186 "/mnt/disk/jenkins2/ci/workspace/chipset_component_FRD_b160_Open_Source/component_code/vendor/huawei/extra/build/build_script/austin_kernel_release/kernel/include/linux/highuid.h"
	.file 187 "/mnt/disk/jenkins2/ci/workspace/chipset_component_FRD_b160_Open_Source/component_code/vendor/huawei/extra/build/build_script/austin_kernel_release/kernel/include/asm-generic/percpu.h"
	.file 188 "/mnt/disk/jenkins2/ci/workspace/chipset_component_FRD_b160_Open_Source/component_code/vendor/huawei/extra/build/build_script/austin_kernel_release/kernel/include/linux/debug_locks.h"
	.file 189 "/mnt/disk/jenkins2/ci/workspace/chipset_component_FRD_b160_Open_Source/component_code/vendor/huawei/extra/build/build_script/austin_kernel_release/kernel/include/asm-generic/pgtable.h"
	.file 190 "/mnt/disk/jenkins2/ci/workspace/chipset_component_FRD_b160_Open_Source/component_code/vendor/huawei/extra/build/build_script/austin_kernel_release/kernel/arch/arm64/include/asm/cpufeature.h"
	.file 191 "/mnt/disk/jenkins2/ci/workspace/chipset_component_FRD_b160_Open_Source/component_code/vendor/huawei/extra/build/build_script/austin_kernel_release/kernel/arch/arm64/include/../../arm/include/asm/xen/hypervisor.h"
	.file 192 "/mnt/disk/jenkins2/ci/workspace/chipset_component_FRD_b160_Open_Source/component_code/vendor/huawei/extra/build/build_script/austin_kernel_release/kernel/arch/arm64/include/asm/dma-mapping.h"
	.file 193 "/mnt/disk/jenkins2/ci/workspace/chipset_component_FRD_b160_Open_Source/component_code/vendor/huawei/extra/build/build_script/austin_kernel_release/kernel/arch/arm64/include/asm/hardirq.h"
	.file 194 "/mnt/disk/jenkins2/ci/workspace/chipset_component_FRD_b160_Open_Source/component_code/vendor/huawei/extra/build/build_script/austin_kernel_release/kernel/include/linux/cgroup.h"
	.file 195 "/mnt/disk/jenkins2/ci/workspace/chipset_component_FRD_b160_Open_Source/component_code/vendor/huawei/extra/build/build_script/austin_kernel_release/kernel/include/net/inet_connection_sock.h"
	.file 196 "/mnt/disk/jenkins2/ci/workspace/chipset_component_FRD_b160_Open_Source/component_code/vendor/huawei/extra/build/build_script/austin_kernel_release/kernel/include/linux/ctype.h"
	.file 197 "/mnt/disk/jenkins2/ci/workspace/chipset_component_FRD_b160_Open_Source/component_code/vendor/huawei/extra/build/build_script/austin_kernel_release/kernel/include/linux/spinlock_api_smp.h"
	.file 198 "/mnt/disk/jenkins2/ci/workspace/chipset_component_FRD_b160_Open_Source/component_code/vendor/huawei/extra/build/build_script/austin_kernel_release/kernel/drivers/huawei_platform/net/hw_netfilter/nf_hw_common.h"
	.file 199 "/mnt/disk/jenkins2/ci/workspace/chipset_component_FRD_b160_Open_Source/component_code/vendor/huawei/extra/build/build_script/austin_kernel_release/kernel/arch/arm64/include/asm/string.h"
	.file 200 "/mnt/disk/jenkins2/ci/workspace/chipset_component_FRD_b160_Open_Source/component_code/vendor/huawei/extra/build/build_script/austin_kernel_release/kernel/include/asm-generic/delay.h"
	.file 201 "<built-in>"
	.section	.note.GNU-stack,"",%progbits
