	.cpu generic+fp+simd
	.file	"nf_ad_filter.c"
	.text
.Ltext0:
	.cfi_sections	.debug_frame
	.align	2
	.type	is_droplist.part.0, %function
is_droplist.part.0:
.LFB1492:
	.file 1 "/mnt/disk/jenkins2/ci/workspace/chipset_component_FRD_b160_Open_Source/component_code/vendor/huawei/extra/build/build_script/austin_kernel_release/kernel/drivers/huawei_platform/net/hw_netfilter/nf_ad_filter.c"
	.loc 1 34 0
	.cfi_startproc
.LVL0:
	stp	x29, x30, [sp, -64]!
	.cfi_def_cfa_offset 64
	.cfi_offset 29, -64
	.cfi_offset 30, -56
	add	x29, sp, 0
	.cfi_def_cfa_register 29
	stp	x19, x20, [sp,16]
	.cfi_offset 19, -48
	.cfi_offset 20, -40
	adrp	x19, .LANCHOR0
	str	x23, [sp,48]
	add	x19, x19, :lo12:.LANCHOR0
	.cfi_offset 23, -16
	mov	x23, x0
	stp	x21, x22, [sp,32]
	.cfi_offset 21, -32
	.cfi_offset 22, -24
	add	x20, x19, 4096
	.loc 1 34 0
	sxtw	x22, w1
	mov	x21, x22
	add	x19, x19, 16
	add	x20, x20, 16
	b	.L4
.LVL1:
.L2:
	add	x19, x19, 32
	.loc 1 41 0 discriminator 1
	cmp	x19, x20
	beq	.L10
.L4:
	.loc 1 42 0
	ldr	x0, [x19]
	cbz	x0, .L2
	.loc 1 42 0 is_stmt 0 discriminator 1
	ldr	w1, [x19,8]
	cmp	w1, w21
	bne	.L2
	.loc 1 43 0 is_stmt 1
	mov	x1, x23
	mov	x2, x22
	bl	memcmp
.LVL2:
	cbnz	w0, .L2
.LBB228:
.LBB229:
	.file 2 "/mnt/disk/jenkins2/ci/workspace/chipset_component_FRD_b160_Open_Source/component_code/vendor/huawei/extra/build/build_script/austin_kernel_release/kernel/include/linux/spinlock.h"
	.loc 2 362 0
	adrp	x0, .LANCHOR1
	add	x0, x0, :lo12:.LANCHOR1
	sub	x0, x0, #256
	bl	_raw_spin_unlock_bh
.LVL3:
.LBE229:
.LBE228:
	.loc 1 51 0
	ldr	x23, [sp,48]
	.cfi_remember_state
	.cfi_restore 23
.LVL4:
	.loc 1 45 0
	mov	w0, 1
	.loc 1 51 0
	ldp	x19, x20, [sp,16]
	.cfi_restore 20
	.cfi_restore 19
	ldp	x21, x22, [sp,32]
	.cfi_restore 22
	.cfi_restore 21
.LVL5:
	ldp	x29, x30, [sp], 64
	.cfi_restore 30
	.cfi_restore 29
	.cfi_def_cfa 31, 0
	ret
.LVL6:
.L10:
	.cfi_restore_state
.LBB230:
.LBB231:
	.loc 2 362 0
	adrp	x0, .LANCHOR1
	add	x0, x0, :lo12:.LANCHOR1
	sub	x0, x0, #256
	bl	_raw_spin_unlock_bh
.LVL7:
.LBE231:
.LBE230:
	.loc 1 51 0
	ldr	x23, [sp,48]
	.cfi_restore 23
.LVL8:
	.loc 1 50 0
	mov	w0, 0
	.loc 1 51 0
	ldp	x19, x20, [sp,16]
	.cfi_restore 19
	.cfi_restore 20
	ldp	x21, x22, [sp,32]
	.cfi_restore 21
	.cfi_restore 22
.LVL9:
	ldp	x29, x30, [sp], 64
	.cfi_restore 29
	.cfi_restore 30
	.cfi_def_cfa 31, 0
	ret
	.cfi_endproc
.LFE1492:
	.size	is_droplist.part.0, .-is_droplist.part.0
	.align	2
	.global	is_droplist
	.type	is_droplist, %function
is_droplist:
.LFB1474:
	.loc 1 35 0
	.cfi_startproc
.LVL10:
	stp	x29, x30, [sp, -48]!
	.cfi_def_cfa_offset 48
	.cfi_offset 29, -48
	.cfi_offset 30, -40
	add	x29, sp, 0
	.cfi_def_cfa_register 29
	str	x19, [sp,16]
	.cfi_offset 19, -32
	.loc 1 38 0
	cbz	x0, .L13
	mov	x19, x0
.LBB234:
.LBB235:
	.loc 2 317 0
	adrp	x0, .LANCHOR1
.LVL11:
	add	x0, x0, :lo12:.LANCHOR1
	str	x1, [x29,40]
	sub	x0, x0, #256
	bl	_raw_spin_lock_bh
.LVL12:
.LBE235:
.LBE234:
	ldr	x1, [x29,40]
.LVL13:
	mov	x0, x19
	bl	is_droplist.part.0
.LVL14:
	.loc 1 51 0
	ldr	x19, [sp,16]
	.cfi_remember_state
	.cfi_restore 19
.LVL15:
	uxtb	w0, w0
	ldp	x29, x30, [sp], 48
	.cfi_restore 30
	.cfi_restore 29
	.cfi_def_cfa 31, 0
	ret
.LVL16:
.L13:
	.cfi_restore_state
	ldr	x19, [sp,16]
	.cfi_restore 19
	.loc 1 39 0
	mov	w0, 0
.LVL17:
	.loc 1 51 0
	ldp	x29, x30, [sp], 48
	.cfi_restore 29
	.cfi_restore 30
	.cfi_def_cfa 31, 0
	ret
	.cfi_endproc
.LFE1474:
	.size	is_droplist, .-is_droplist
	.align	2
	.global	add_to_droplist
	.type	add_to_droplist, %function
add_to_droplist:
.LFB1475:
	.loc 1 54 0
	.cfi_startproc
.LVL18:
	stp	x29, x30, [sp, -64]!
	.cfi_def_cfa_offset 64
	.cfi_offset 29, -64
	.cfi_offset 30, -56
	add	x29, sp, 0
	.cfi_def_cfa_register 29
	stp	x19, x20, [sp,16]
	stp	x21, x22, [sp,32]
	stp	x23, x24, [sp,48]
	.cfi_offset 19, -48
	.cfi_offset 20, -40
	.cfi_offset 21, -32
	.cfi_offset 22, -24
	.cfi_offset 23, -16
	.cfi_offset 24, -8
	.loc 1 58 0
	cbz	x0, .L14
.LBB262:
.LBB263:
.LBB264:
.LBB265:
	.loc 2 317 0
	adrp	x21, .LANCHOR1
	mov	x19, x0
	add	x21, x21, :lo12:.LANCHOR1
	mov	w20, w1
	sub	x22, x21, #256
	mov	x0, x22
.LVL19:
	bl	_raw_spin_lock_bh
.LVL20:
.LBE265:
.LBE264:
	mov	x0, x19
	mov	w1, w20
	bl	is_droplist.part.0
.LVL21:
	uxtb	w0, w0
.LBE263:
.LBE262:
	.loc 1 60 0
	cbnz	w0, .L14
	.loc 1 62 0
	add	w0, w20, 1
.LBB266:
.LBB267:
	.file 3 "/mnt/disk/jenkins2/ci/workspace/chipset_component_FRD_b160_Open_Source/component_code/vendor/huawei/extra/build/build_script/austin_kernel_release/kernel/include/linux/slab.h"
	.loc 3 435 0
	mov	w1, 32
	sxtw	x0, w0
	bl	__kmalloc
.LVL22:
	mov	x23, x0
.LBE267:
.LBE266:
	.loc 1 63 0
	cbz	x0, .L14
	.loc 1 65 0
	sxtw	x3, w20
	.loc 1 66 0
	mov	x1, x19
	mov	x2, x3
	.loc 1 71 0
	adrp	x19, .LANCHOR0
.LVL23:
	add	x19, x19, :lo12:.LANCHOR0
	.loc 1 65 0
	strb	wzr, [x0,x3]
	.loc 1 66 0
	bl	memcpy
.LVL24:
.LBB268:
.LBB269:
	.loc 2 317 0
	mov	x0, x22
	bl	_raw_spin_lock_bh
.LVL25:
.LBE269:
.LBE268:
	.loc 1 68 0
	ldr	w0, [x21,-232]
	.loc 1 71 0
	ubfiz	x1, x0, 5, 32
	.loc 1 68 0
	add	w0, w0, 1
	.loc 1 71 0
	add	x19, x19, x1
	.loc 1 68 0
	cmp	w0, 127
	csel	w0, w0, wzr, ls
	str	w0, [x21,-232]
	.loc 1 71 0
	ldr	x0, [x19,16]
	bl	kfree
.LVL26:
	.loc 1 72 0
	str	x23, [x19,16]
.LBB270:
.LBB271:
	.loc 2 362 0
	mov	x0, x22
.LBE271:
.LBE270:
	.loc 1 73 0
	str	w20, [x19,24]
.LBB273:
.LBB272:
	.loc 2 362 0
	bl	_raw_spin_unlock_bh
.LVL27:
.L14:
.LBE272:
.LBE273:
	.loc 1 75 0
	ldp	x19, x20, [sp,16]
	.cfi_restore 20
	.cfi_restore 19
.LVL28:
	ldp	x21, x22, [sp,32]
	.cfi_restore 22
	.cfi_restore 21
	ldp	x23, x24, [sp,48]
	.cfi_restore 24
	.cfi_restore 23
	ldp	x29, x30, [sp], 64
	.cfi_restore 30
	.cfi_restore 29
	.cfi_def_cfa 31, 0
	ret
	.cfi_endproc
.LFE1475:
	.size	add_to_droplist, .-add_to_droplist
	.align	2
	.global	add_url_to_node
	.type	add_url_to_node, %function
add_url_to_node:
.LFB1476:
	.loc 1 79 0
	.cfi_startproc
.LVL29:
	stp	x29, x30, [sp, -96]!
	.cfi_def_cfa_offset 96
	.cfi_offset 29, -96
	.cfi_offset 30, -88
	add	x29, sp, 0
	.cfi_def_cfa_register 29
	stp	x19, x20, [sp,16]
	.cfi_offset 19, -80
	.cfi_offset 20, -72
	.loc 1 81 0
	add	w20, w2, w2, lsr 31
	.loc 1 79 0
	str	x25, [sp,64]
	.loc 1 81 0
	asr	w20, w20, 1
.LVL30:
	.cfi_offset 25, -32
	.loc 1 79 0
	mov	x25, x1
	.loc 1 82 0
	add	w19, w20, 2
.LBB274:
.LBB275:
	.loc 3 435 0
	mov	w1, 32
.LVL31:
.LBE275:
.LBE274:
	.loc 1 79 0
	stp	x23, x24, [sp,48]
	.cfi_offset 23, -48
	.cfi_offset 24, -40
	mov	x24, x0
.LBB278:
.LBB276:
	.loc 3 435 0
	sxtw	x0, w19
.LVL32:
.LBE276:
.LBE278:
	.loc 1 79 0
	stp	x21, x22, [sp,32]
	.cfi_offset 21, -64
	.cfi_offset 22, -56
	.loc 1 81 0
	str	x2, [x29,88]
.LBB279:
.LBB277:
	.loc 3 435 0
	bl	__kmalloc
.LVL33:
	mov	x22, x0
.LBE277:
.LBE279:
	.loc 1 84 0
	cbz	x0, .L23
	.loc 1 86 0
	ldr	x2, [x29,88]
.LVL34:
	.loc 1 87 0
	sxtw	x23, w20
	.loc 1 86 0
	mov	w3, w19
	mov	x0, x25
	mov	w1, w2
	mov	x2, x22
.LVL35:
.LBB280:
	.loc 1 88 0
	mov	x21, x24
.LBE280:
	.loc 1 86 0
	bl	hex_to_byte
.LVL36:
	.loc 1 87 0
	strb	wzr, [x22,x23]
.LBB281:
	.loc 1 88 0
	ldr	x19, [x21,24]!
.LVL37:
.LBE281:
	.loc 1 88 0 is_stmt 0 discriminator 1
	cmp	x19, x21
	bne	.L27
	b	.L25
.L26:
.LBB282:
	.loc 1 88 0 discriminator 2
	ldr	x19, [x19]
.LBE282:
	.loc 1 88 0 discriminator 1
	cmp	x19, x21
	beq	.L25
.L27:
	.loc 1 89 0 is_stmt 1
	ldr	w0, [x19,24]
	cmp	w0, w20
	bne	.L26
	.loc 1 90 0
	ldr	x0, [x19,16]
	mov	x1, x22
	mov	x2, x23
	bl	memcmp
.LVL38:
	cbnz	w0, .L26
	.loc 1 91 0
	adrp	x0, .LC0
	mov	x1, x25
	add	x0, x0, :lo12:.LC0
	bl	printk
.LVL39:
	.loc 1 92 0
	mov	x0, x22
	bl	kfree
.LVL40:
.L23:
	.loc 1 105 0
	ldp	x19, x20, [sp,16]
	.cfi_remember_state
	.cfi_restore 20
	.cfi_restore 19
.LVL41:
	ldp	x21, x22, [sp,32]
	.cfi_restore 22
	.cfi_restore 21
	ldp	x23, x24, [sp,48]
	.cfi_restore 24
	.cfi_restore 23
.LVL42:
	ldr	x25, [sp,64]
	.cfi_restore 25
.LVL43:
	ldp	x29, x30, [sp], 96
	.cfi_restore 30
	.cfi_restore 29
	.cfi_def_cfa 31, 0
	ret
.LVL44:
.L25:
	.cfi_restore_state
.LBB283:
.LBB284:
	.loc 3 430 0
	adrp	x0, kmalloc_caches+48
	mov	w1, 32
	mov	x2, 32
	ldr	x0, [x0,#:lo12:kmalloc_caches+48]
	bl	kmem_cache_alloc_trace
.LVL45:
.LBE284:
.LBE283:
	.loc 1 98 0
	cbz	x0, .L33
	.loc 1 102 0
	str	x22, [x0,16]
	.loc 1 103 0
	str	w20, [x0,24]
.LBB285:
.LBB286:
	.file 4 "/mnt/disk/jenkins2/ci/workspace/chipset_component_FRD_b160_Open_Source/component_code/vendor/huawei/extra/build/build_script/austin_kernel_release/kernel/include/linux/list.h"
	.loc 4 63 0
	ldr	x1, [x24,24]
.LBB287:
.LBB288:
	.loc 4 42 0
	str	x0, [x1,8]
	.loc 4 43 0
	str	x1, [x0]
	.loc 4 44 0
	str	x21, [x0,8]
	.loc 4 45 0
	str	x0, [x24,24]
.LBE288:
.LBE287:
.LBE286:
.LBE285:
	.loc 1 105 0
	ldp	x19, x20, [sp,16]
	.cfi_remember_state
	.cfi_restore 19
	.cfi_restore 20
.LVL46:
	ldp	x21, x22, [sp,32]
	.cfi_restore 21
	.cfi_restore 22
	ldp	x23, x24, [sp,48]
	.cfi_restore 23
	.cfi_restore 24
.LVL47:
	ldr	x25, [sp,64]
	.cfi_restore 25
.LVL48:
	ldp	x29, x30, [sp], 96
	.cfi_restore 29
	.cfi_restore 30
	.cfi_def_cfa 31, 0
	ret
.LVL49:
.L33:
	.cfi_restore_state
	.loc 1 99 0
	mov	x0, x22
	bl	kfree
.LVL50:
	.loc 1 100 0
	b	.L23
	.cfi_endproc
.LFE1476:
	.size	add_url_to_node, .-add_url_to_node
	.align	2
	.global	add_ad_rule_to_list
	.type	add_ad_rule_to_list, %function
add_ad_rule_to_list:
.LFB1477:
	.loc 1 108 0
	.cfi_startproc
.LVL51:
	stp	x29, x30, [sp, -80]!
	.cfi_def_cfa_offset 80
	.cfi_offset 29, -80
	.cfi_offset 30, -72
	add	x29, sp, 0
	.cfi_def_cfa_register 29
	stp	x23, x24, [sp,48]
	stp	x19, x20, [sp,16]
	stp	x21, x22, [sp,32]
	stp	x25, x26, [sp,64]
	.cfi_offset 23, -32
	.cfi_offset 24, -24
	.cfi_offset 19, -64
	.cfi_offset 20, -56
	.cfi_offset 21, -48
	.cfi_offset 22, -40
	.cfi_offset 25, -16
	.cfi_offset 26, -8
	.loc 1 108 0
	mov	w20, w0
	mov	x23, x1
	mov	w24, w2
	.loc 1 110 0
	bl	get_hash_id
.LVL52:
	.loc 1 112 0
	cmp	w0, 255
	bhi	.L45
.LBB289:
.LBB290:
	.loc 2 317 0
	uxtw	x21, w0
.LVL53:
	adrp	x0, .LANCHOR1
	lsl	x22, x21, 5
	add	x0, x0, :lo12:.LANCHOR1
	sub	x0, x0, #224
	sub	x22, x22, x21, lsl 3
	add	x22, x0, x22
.LBE290:
.LBE289:
.LBB292:
	.loc 1 117 0
	adrp	x25, .LANCHOR2
.LBE292:
.LBB293:
.LBB291:
	.loc 2 317 0
	mov	x0, x22
	bl	_raw_spin_lock_bh
.LVL54:
.LBE291:
.LBE293:
.LBB294:
	.loc 1 117 0
	add	x0, x25, :lo12:.LANCHOR2
	lsl	x1, x21, 4
	add	x0, x0, 1568
	add	x19, x0, x1
	ldr	x0, [x0,x1]
.LVL55:
.LBE294:
	.loc 1 117 0 is_stmt 0 discriminator 1
	cmp	x0, x19
	bne	.L41
	b	.L37
.L40:
.LBB295:
	.loc 1 117 0 discriminator 2
	ldr	x0, [x0]
.LBE295:
	.loc 1 117 0 discriminator 1
	cmp	x0, x19
	beq	.L37
.L41:
	.loc 1 118 0 is_stmt 1
	ldr	w1, [x0,16]
	cmp	w1, w20
	bne	.L40
	.loc 1 119 0
	mov	x1, x23
	mov	w2, w24
	bl	add_url_to_node
.LVL56:
.LBB296:
.LBB297:
	.loc 2 362 0
	mov	x0, x22
	bl	_raw_spin_unlock_bh
.LVL57:
.LBE297:
.LBE296:
	.loc 1 135 0
	ldp	x19, x20, [sp,16]
	.cfi_remember_state
	.cfi_restore 19
	.cfi_restore 20
.LVL58:
	ldp	x21, x22, [sp,32]
	.cfi_restore 21
	.cfi_restore 22
.LVL59:
	ldp	x23, x24, [sp,48]
	.cfi_restore 23
	.cfi_restore 24
.LVL60:
	ldp	x25, x26, [sp,64]
	.cfi_restore 25
	.cfi_restore 26
	ldp	x29, x30, [sp], 80
	.cfi_restore 29
	.cfi_restore 30
	.cfi_def_cfa 31, 0
	ret
.LVL61:
.L37:
	.cfi_restore_state
.LBB298:
.LBB299:
	.loc 3 430 0
	adrp	x0, kmalloc_caches+48
.LVL62:
	mov	w1, 32
	mov	x2, 56
	ldr	x0, [x0,#:lo12:kmalloc_caches+48]
	bl	kmem_cache_alloc_trace
.LVL63:
	mov	x26, x0
.LBE299:
.LBE298:
	.loc 1 125 0
	cbnz	x0, .L42
.LBB300:
.LBB301:
	.loc 2 362 0
	mov	x0, x22
	bl	_raw_spin_unlock_bh
.LVL64:
.L34:
.LBE301:
.LBE300:
	.loc 1 135 0
	ldp	x19, x20, [sp,16]
	.cfi_remember_state
	.cfi_restore 20
	.cfi_restore 19
.LVL65:
	ldp	x21, x22, [sp,32]
	.cfi_restore 22
	.cfi_restore 21
.LVL66:
	ldp	x23, x24, [sp,48]
	.cfi_restore 24
	.cfi_restore 23
.LVL67:
	ldp	x25, x26, [sp,64]
	.cfi_restore 26
	.cfi_restore 25
	ldp	x29, x30, [sp], 80
	.cfi_restore 30
	.cfi_restore 29
	.cfi_def_cfa 31, 0
	ret
.LVL68:
.L45:
	.cfi_restore_state
	.loc 1 113 0
	mov	w1, w0
	adrp	x0, .LC1
.LVL69:
	add	x0, x0, :lo12:.LC1
	bl	printk
.LVL70:
	.loc 1 114 0
	b	.L34
.LVL71:
.L42:
	.loc 1 129 0
	adrp	x0, .LC2
	mov	w1, w20
	mov	x2, x23
	add	x0, x0, :lo12:.LC2
.LBB302:
.LBB303:
	.loc 4 63 0
	add	x25, x25, :lo12:.LANCHOR2
	lsl	x21, x21, 4
.LVL72:
.LBE303:
.LBE302:
	.loc 1 129 0
	bl	printk
.LVL73:
.LBB309:
.LBB306:
	.loc 4 63 0
	add	x25, x25, 1568
.LBE306:
.LBE309:
	.loc 1 130 0
	add	x3, x26, 24
.LBB310:
.LBB311:
	.loc 4 27 0
	str	x3, [x26,24]
.LBE311:
.LBE310:
	.loc 1 132 0
	mov	x0, x26
	mov	x1, x23
	mov	w2, w24
.LBB313:
.LBB312:
	.loc 4 28 0
	str	x3, [x3,8]
.LBE312:
.LBE313:
	.loc 1 131 0
	str	w20, [x26,16]
	.loc 1 132 0
	bl	add_url_to_node
.LVL74:
.LBB314:
.LBB307:
	.loc 4 63 0
	ldr	x1, [x25,x21]
.LBE307:
.LBE314:
.LBB315:
.LBB316:
	.loc 2 362 0
	mov	x0, x22
.LBE316:
.LBE315:
.LBB318:
.LBB308:
.LBB304:
.LBB305:
	.loc 4 42 0
	str	x26, [x1,8]
	.loc 4 43 0
	str	x1, [x26]
	.loc 4 44 0
	str	x19, [x26,8]
	.loc 4 45 0
	str	x26, [x25,x21]
.LBE305:
.LBE304:
.LBE308:
.LBE318:
.LBB319:
.LBB317:
	.loc 2 362 0
	bl	_raw_spin_unlock_bh
.LVL75:
	b	.L34
.LBE317:
.LBE319:
	.cfi_endproc
.LFE1477:
	.size	add_ad_rule_to_list, .-add_ad_rule_to_list
	.align	2
	.global	add_ad_uid_rule
	.type	add_ad_uid_rule, %function
add_ad_uid_rule:
.LFB1478:
	.loc 1 138 0
	.cfi_startproc
.LVL76:
	stp	x29, x30, [sp, -80]!
	.cfi_def_cfa_offset 80
	.cfi_offset 29, -80
	.cfi_offset 30, -72
	add	x29, sp, 0
	.cfi_def_cfa_register 29
	stp	x21, x22, [sp,32]
	stp	x19, x20, [sp,16]
	stp	x23, x24, [sp,48]
	.cfi_offset 21, -48
	.cfi_offset 22, -40
	.cfi_offset 19, -64
	.cfi_offset 20, -56
	.cfi_offset 23, -32
	.cfi_offset 24, -24
	.loc 1 140 0
	str	xzr, [x29,72]
.LVL77:
	.loc 1 138 0
	mov	x21, x0
	.loc 1 145 0
	cbz	x0, .L46
	sxtw	x22, w1
	.loc 1 147 0
	mov	w1, 58
.LVL78:
	bl	strchr
.LVL79:
	add	x1, x29, 80
	.loc 1 148 0
	mov	w2, 10
	.loc 1 147 0
	str	x0, [x1,-8]!
.LVL80:
	.loc 1 148 0
	mov	x0, x21
	bl	simple_strtoull
.LVL81:
	mov	x23, x0
	.loc 1 149 0
	ldr	x1, [x29,72]
	.loc 1 148 0
	mov	w24, w0
.LVL82:
	.loc 1 149 0
	add	x1, x1, 1
	str	x1, [x29,72]
.LVL83:
	.loc 1 150 0
	sub	x0, x1, x21
.LVL84:
	.loc 1 151 0
	cmp	w0, w22
	.loc 1 150 0
	mov	w19, w0
.LVL85:
	.loc 1 151 0
	blt	.L51
	b	.L48
.L49:
	cmp	w22, w19
	ble	.L58
.L51:
	.loc 1 152 0
	sxtw	x20, w19
	.loc 1 158 0
	add	w19, w19, 1
	.loc 1 152 0
	add	x2, x21, x20
	ldrb	w0, [x21,x20]
	cmp	w0, 44
	bne	.L49
	.loc 1 153 0
	sub	x2, x2, x1
	.loc 1 155 0
	mov	w0, w24
	.loc 1 154 0
	cmp	w2, wzr
	ble	.L50
	.loc 1 155 0
	bl	add_ad_rule_to_list
.LVL86:
.L50:
	.loc 1 156 0
	add	x20, x20, 1
	.loc 1 151 0
	cmp	w22, w19
	.loc 1 156 0
	add	x1, x21, x20
	str	x1, [x29,72]
	.loc 1 151 0
	bgt	.L51
.L58:
	sub	x0, x1, x21
.L48:
	.loc 1 160 0
	cmp	x22, x0
.LVL87:
	bgt	.L59
.LVL88:
.L46:
	.loc 1 164 0
	ldp	x19, x20, [sp,16]
	.cfi_remember_state
	.cfi_restore 20
	.cfi_restore 19
.LVL89:
	ldp	x21, x22, [sp,32]
	.cfi_restore 22
	.cfi_restore 21
.LVL90:
	ldp	x23, x24, [sp,48]
	.cfi_restore 24
	.cfi_restore 23
.LVL91:
	ldp	x29, x30, [sp], 80
	.cfi_restore 30
	.cfi_restore 29
	.cfi_def_cfa 31, 0
	ret
.LVL92:
.L59:
	.cfi_restore_state
	.loc 1 161 0
	add	x2, x21, x22
	.loc 1 162 0
	mov	w0, w23
	sub	w2, w2, w1
	bl	add_ad_rule_to_list
.LVL93:
	.loc 1 164 0
	ldp	x19, x20, [sp,16]
	.cfi_restore 19
	.cfi_restore 20
.LVL94:
	ldp	x21, x22, [sp,32]
	.cfi_restore 21
	.cfi_restore 22
.LVL95:
	ldp	x23, x24, [sp,48]
	.cfi_restore 23
	.cfi_restore 24
.LVL96:
	ldp	x29, x30, [sp], 80
	.cfi_restore 29
	.cfi_restore 30
	.cfi_def_cfa 31, 0
	ret
	.cfi_endproc
.LFE1478:
	.size	add_ad_uid_rule, .-add_ad_uid_rule
	.align	2
	.global	clear_node_ad_rule
	.type	clear_node_ad_rule, %function
clear_node_ad_rule:
.LFB1480:
	.loc 1 195 0
	.cfi_startproc
.LVL97:
	stp	x29, x30, [sp, -48]!
	.cfi_def_cfa_offset 48
	.cfi_offset 29, -48
	.cfi_offset 30, -40
	add	x29, sp, 0
	.cfi_def_cfa_register 29
	stp	x19, x20, [sp,16]
	stp	x21, x22, [sp,32]
	.cfi_offset 19, -32
	.cfi_offset 20, -24
	.cfi_offset 21, -16
	.cfi_offset 22, -8
	.loc 1 199 0
	cbz	x0, .L60
.LBB320:
	.loc 1 201 0
	mov	x21, x0
	mov	x22, x0
	ldr	x19, [x21,24]!
.LBE320:
	.loc 1 201 0 is_stmt 0 discriminator 1
	cmp	x19, x21
.LBB321:
	.loc 1 201 0
	ldr	x20, [x19]
.LBE321:
	.loc 1 201 0 discriminator 1
	beq	.L64
.L67:
.LBB322:
.LBB323:
	.loc 4 107 0 is_stmt 1
	ldr	x3, [x19,8]
	.loc 4 108 0
	mov	x2, 256
.LBB324:
.LBB325:
	.loc 4 89 0
	str	x3, [x20,8]
.LBE325:
.LBE324:
	.loc 4 109 0
	mov	x1, 512
	.loc 4 108 0
	movk	x2, 0xdead, lsl 48
	.loc 4 109 0
	movk	x1, 0xdead, lsl 48
.LBB327:
.LBB326:
	.loc 4 90 0
	str	x20, [x3]
.LBE326:
.LBE327:
	.loc 4 108 0
	str	x2, [x19]
.LBE323:
.LBE322:
	.loc 1 204 0
	ldr	x0, [x19,16]
.LBB329:
.LBB328:
	.loc 4 109 0
	str	x1, [x19,8]
.LBE328:
.LBE329:
	.loc 1 203 0
	str	wzr, [x19,24]
	.loc 1 204 0
	bl	kfree
.LVL98:
	.loc 1 205 0
	mov	x0, x19
	mov	x19, x20
	bl	kfree
.LVL99:
	.loc 1 201 0 discriminator 1
	cmp	x20, x21
	.loc 1 201 0 is_stmt 0 discriminator 3
	ldr	x20, [x20]
	.loc 1 201 0 discriminator 1
	bne	.L67
.LVL100:
.L64:
.LBB330:
.LBB331:
	.loc 4 107 0 is_stmt 1
	ldr	x4, [x22]
	.loc 4 108 0
	mov	x2, 256
	.loc 4 107 0
	ldr	x3, [x22,8]
	.loc 4 109 0
	mov	x1, 512
	.loc 4 108 0
	movk	x2, 0xdead, lsl 48
	.loc 4 109 0
	movk	x1, 0xdead, lsl 48
.LBB332:
.LBB333:
	.loc 4 89 0
	str	x3, [x4,8]
.LBE333:
.LBE332:
.LBE331:
.LBE330:
	.loc 1 208 0
	mov	x0, x22
.LBB337:
.LBB336:
.LBB335:
.LBB334:
	.loc 4 90 0
	str	x4, [x3]
.LBE334:
.LBE335:
	.loc 4 108 0
	str	x2, [x22]
	.loc 4 109 0
	str	x1, [x22,8]
.LBE336:
.LBE337:
	.loc 1 208 0
	bl	kfree
.LVL101:
.L60:
	.loc 1 209 0
	ldp	x19, x20, [sp,16]
	.cfi_restore 20
	.cfi_restore 19
	ldp	x21, x22, [sp,32]
	.cfi_restore 22
	.cfi_restore 21
	ldp	x29, x30, [sp], 48
	.cfi_restore 30
	.cfi_restore 29
	.cfi_def_cfa 31, 0
	ret
	.cfi_endproc
.LFE1480:
	.size	clear_node_ad_rule, .-clear_node_ad_rule
	.align	2
	.global	clear_uid_ad_rule
	.type	clear_uid_ad_rule, %function
clear_uid_ad_rule:
.LFB1481:
	.loc 1 212 0
	.cfi_startproc
.LVL102:
	stp	x29, x30, [sp, -48]!
	.cfi_def_cfa_offset 48
	.cfi_offset 29, -48
	.cfi_offset 30, -40
	add	x29, sp, 0
	.cfi_def_cfa_register 29
	stp	x19, x20, [sp,16]
	stp	x21, x22, [sp,32]
	.cfi_offset 19, -32
	.cfi_offset 20, -24
	.cfi_offset 21, -16
	.cfi_offset 22, -8
	.loc 1 212 0
	mov	w20, w0
	.loc 1 215 0
	bl	get_hash_id
.LVL103:
	.loc 1 217 0
	cmp	w0, 255
	bls	.L78
	.loc 1 225 0
	ldp	x19, x20, [sp,16]
	.cfi_remember_state
	.cfi_restore 20
	.cfi_restore 19
.LVL104:
	ldp	x21, x22, [sp,32]
	.cfi_restore 22
	.cfi_restore 21
	ldp	x29, x30, [sp], 48
	.cfi_restore 30
	.cfi_restore 29
	.cfi_def_cfa 31, 0
	ret
.LVL105:
.L78:
	.cfi_restore_state
.LBB338:
.LBB339:
	.loc 2 317 0
	uxtw	x19, w0
.LVL106:
	adrp	x21, .LANCHOR1
	add	x1, x21, :lo12:.LANCHOR1
	lsl	x22, x19, 5
	sub	x0, x1, #224
	sub	x22, x22, x19, lsl 3
	add	x22, x0, x22
.LBE339:
.LBE338:
.LBB341:
	.loc 1 220 0
	lsl	x19, x19, 4
.LVL107:
.LBE341:
.LBB342:
.LBB340:
	.loc 2 317 0
	mov	x0, x22
	bl	_raw_spin_lock_bh
.LVL108:
.LBE340:
.LBE342:
.LBB343:
	.loc 1 220 0
	adrp	x0, .LANCHOR2
	add	x0, x0, :lo12:.LANCHOR2
	add	x0, x0, 1568
	add	x21, x0, x19
	ldr	x0, [x0,x19]
.LBE343:
	.loc 1 220 0 is_stmt 0 discriminator 1
	cmp	x0, x21
.LBB344:
	.loc 1 220 0
	ldr	x19, [x0]
.LBE344:
	.loc 1 220 0 discriminator 1
	bne	.L77
	b	.L75
.L73:
	cmp	x19, x21
.LBB345:
	.loc 1 220 0 discriminator 2
	ldr	x1, [x19]
	mov	x0, x19
.LBE345:
	mov	x19, x1
	.loc 1 220 0 discriminator 1
	beq	.L75
.L77:
	.loc 1 221 0 is_stmt 1
	ldr	w1, [x0,16]
	cmp	w20, w1
	bne	.L73
	.loc 1 222 0
	bl	clear_node_ad_rule
.LVL109:
	.loc 1 220 0 discriminator 1
	cmp	x19, x21
.LBB346:
	.loc 1 220 0 is_stmt 0 discriminator 2
	ldr	x1, [x19]
	mov	x0, x19
.LBE346:
	mov	x19, x1
	.loc 1 220 0 discriminator 1
	bne	.L77
.L75:
.LBB347:
.LBB348:
	.loc 2 362 0 is_stmt 1
	mov	x0, x22
	bl	_raw_spin_unlock_bh
.LVL110:
.LBE348:
.LBE347:
	.loc 1 225 0
	ldp	x19, x20, [sp,16]
	.cfi_restore 19
	.cfi_restore 20
.LVL111:
	ldp	x21, x22, [sp,32]
	.cfi_restore 21
	.cfi_restore 22
	ldp	x29, x30, [sp], 48
	.cfi_restore 29
	.cfi_restore 30
	.cfi_def_cfa 31, 0
	ret
	.cfi_endproc
.LFE1481:
	.size	clear_uid_ad_rule, .-clear_uid_ad_rule
	.align	2
	.global	clear_ad_rule_string
	.type	clear_ad_rule_string, %function
clear_ad_rule_string:
.LFB1482:
	.loc 1 228 0
	.cfi_startproc
.LVL112:
	stp	x29, x30, [sp, -48]!
	.cfi_def_cfa_offset 48
	.cfi_offset 29, -48
	.cfi_offset 30, -40
	add	x29, sp, 0
	.cfi_def_cfa_register 29
	stp	x19, x20, [sp,16]
	.cfi_offset 19, -32
	.cfi_offset 20, -24
	.loc 1 228 0
	mov	x19, x0
	.loc 1 234 0
	cbz	x0, .L79
	.loc 1 237 0
	add	x20, x29, 48
	mov	x2, x0
	str	x0, [x20,-8]!
.LVL113:
.L81:
	.loc 1 238 0 discriminator 1
	ldrb	w2, [x2]
	.loc 1 239 0
	mov	x0, x19
	mov	w1, 59
	.loc 1 238 0 discriminator 1
	cbz	w2, .L79
	.loc 1 239 0
	bl	strchr
.LVL114:
	str	x0, [x29,40]
	.loc 1 240 0
	cbnz	x0, .L94
.LVL115:
.L79:
	.loc 1 246 0
	ldp	x19, x20, [sp,16]
	.cfi_remember_state
	.cfi_restore 20
	.cfi_restore 19
.LVL116:
	ldp	x29, x30, [sp], 48
	.cfi_restore 30
	.cfi_restore 29
	.cfi_def_cfa 31, 0
	ret
.LVL117:
.L94:
	.cfi_restore_state
	.loc 1 241 0
	mov	w2, 10
	mov	x0, x19
	mov	x1, x20
	bl	simple_strtoull
.LVL118:
	.loc 1 242 0
	bl	clear_uid_ad_rule
.LVL119:
	.loc 1 243 0
	ldr	x2, [x29,40]
	add	x19, x2, 1
	.loc 1 238 0
	cbnz	x2, .L81
	b	.L79
	.cfi_endproc
.LFE1482:
	.size	clear_ad_rule_string, .-clear_ad_rule_string
	.align	2
	.global	clear_ad_rule
	.type	clear_ad_rule, %function
clear_ad_rule:
.LFB1483:
	.loc 1 249 0
	.cfi_startproc
.LVL120:
	stp	x29, x30, [sp, -48]!
	.cfi_def_cfa_offset 48
	.cfi_offset 29, -48
	.cfi_offset 30, -40
	add	x29, sp, 0
	.cfi_def_cfa_register 29
	stp	x19, x20, [sp,16]
	stp	x21, x22, [sp,32]
	.cfi_offset 19, -32
	.cfi_offset 20, -24
	.cfi_offset 21, -16
	.cfi_offset 22, -8
	.loc 1 254 0
	cbz	x1, .L95
	mov	w2, w0
	mov	x0, x1
.LVL121:
	.loc 1 256 0
	cbz	w2, .L107
	adrp	x20, .LANCHOR2
	adrp	x21, .LANCHOR1
	add	x20, x20, :lo12:.LANCHOR2
	add	x21, x21, :lo12:.LANCHOR1
	add	x20, x20, 1568
	sub	x21, x21, #224
	add	x22, x20, 4096
.L100:
.LBB349:
.LBB350:
	.loc 2 317 0
	mov	x0, x21
	bl	_raw_spin_lock_bh
.LVL122:
.LBE350:
.LBE349:
.LBB351:
	.loc 1 262 0
	ldr	x0, [x20]
.LBE351:
	.loc 1 262 0 is_stmt 0 discriminator 1
	cmp	x0, x20
.LBB352:
	.loc 1 262 0
	ldr	x19, [x0]
.LBE352:
	.loc 1 262 0 discriminator 1
	beq	.L103
.L104:
	.loc 1 263 0 is_stmt 1
	bl	clear_node_ad_rule
.LVL123:
	.loc 1 262 0 discriminator 1
	cmp	x19, x20
	mov	x0, x19
	.loc 1 262 0 is_stmt 0 discriminator 3
	ldr	x19, [x19]
	.loc 1 262 0 discriminator 1
	bne	.L104
.L103:
.LBB353:
.LBB354:
	.loc 2 362 0 is_stmt 1
	mov	x0, x21
	add	x20, x20, 16
	add	x21, x21, 24
	bl	_raw_spin_unlock_bh
.LVL124:
.LBE354:
.LBE353:
	.loc 1 260 0 discriminator 1
	cmp	x20, x22
	bne	.L100
.LVL125:
.L95:
	.loc 1 267 0
	ldp	x19, x20, [sp,16]
	.cfi_remember_state
	.cfi_restore 20
	.cfi_restore 19
	ldp	x21, x22, [sp,32]
	.cfi_restore 22
	.cfi_restore 21
	ldp	x29, x30, [sp], 48
	.cfi_restore 30
	.cfi_restore 29
	.cfi_def_cfa 31, 0
	ret
.LVL126:
.L107:
	.cfi_restore_state
	.loc 1 257 0
	bl	clear_ad_rule_string
.LVL127:
	.loc 1 267 0
	ldp	x19, x20, [sp,16]
	.cfi_restore 19
	.cfi_restore 20
	ldp	x21, x22, [sp,32]
	.cfi_restore 21
	.cfi_restore 22
	ldp	x29, x30, [sp], 48
	.cfi_restore 29
	.cfi_restore 30
	.cfi_def_cfa 31, 0
	ret
	.cfi_endproc
.LFE1483:
	.size	clear_ad_rule, .-clear_ad_rule
	.align	2
	.global	add_ad_rule
	.type	add_ad_rule, %function
add_ad_rule:
.LFB1479:
	.loc 1 167 0
	.cfi_startproc
.LVL128:
	stp	x29, x30, [sp, -48]!
	.cfi_def_cfa_offset 48
	.cfi_offset 29, -48
	.cfi_offset 30, -40
	add	x29, sp, 0
	.cfi_def_cfa_register 29
	stp	x21, x22, [sp,32]
	.cfi_offset 21, -16
	.cfi_offset 22, -8
	mov	x21, x0
	stp	x19, x20, [sp,16]
	.cfi_offset 19, -32
	.cfi_offset 20, -24
	.loc 1 167 0
	uxtb	w19, w1
.LVL129:
	.loc 1 171 0
	bl	strlen
.LVL130:
	sxtw	x22, w0
	.loc 1 173 0
	cbz	x21, .L108
	.loc 1 175 0
	cbnz	w19, .L123
.L110:
	ldrb	w20, [x21]
	.loc 1 167 0
	mov	x19, x21
.LVL131:
	b	.L112
.L113:
	.loc 1 178 0
	bl	strchr
.LVL132:
	mov	x20, x0
.LVL133:
	.loc 1 182 0
	mov	x0, x19
	.loc 1 181 0
	sub	x19, x20, x19
	.loc 1 182 0
	mov	w1, w19
	.loc 1 181 0
	cmp	x19, xzr
	.loc 1 179 0
	cbz	x20, .L108
	.loc 1 181 0
	ble	.L108
	.loc 1 182 0
	bl	add_ad_uid_rule
.LVL134:
	.loc 1 185 0
	add	x19, x20, 1
	.loc 1 183 0
	sub	x0, x20, x21
	cmp	x0, x22
	bge	.L108
	.loc 1 186 0
	ldrb	w0, [x20,1]
	mov	w20, w0
.LVL135:
	cbz	w0, .L108
.L112:
	.loc 1 178 0
	mov	x0, x19
	mov	w1, 59
	.loc 1 177 0
	cbnz	w20, .L113
.LVL136:
.L108:
	.loc 1 192 0
	ldp	x19, x20, [sp,16]
	.cfi_remember_state
	.cfi_restore 20
	.cfi_restore 19
.LVL137:
	ldp	x21, x22, [sp,32]
	.cfi_restore 22
	.cfi_restore 21
.LVL138:
	ldp	x29, x30, [sp], 48
	.cfi_restore 30
	.cfi_restore 29
	.cfi_def_cfa 31, 0
	ret
.LVL139:
.L123:
	.cfi_restore_state
	.loc 1 176 0
	adrp	x1, .LC3
	mov	w0, 1
	add	x1, x1, :lo12:.LC3
	bl	clear_ad_rule
.LVL140:
	b	.L110
	.cfi_endproc
.LFE1479:
	.size	add_ad_rule, .-add_ad_rule
	.align	2
	.global	match_ad_uid
	.type	match_ad_uid, %function
match_ad_uid:
.LFB1484:
	.loc 1 270 0
	.cfi_startproc
.LVL141:
	stp	x29, x30, [sp, -48]!
	.cfi_def_cfa_offset 48
	.cfi_offset 29, -48
	.cfi_offset 30, -40
	add	x29, sp, 0
	.cfi_def_cfa_register 29
	stp	x19, x20, [sp,16]
	str	x21, [sp,32]
	.cfi_offset 19, -32
	.cfi_offset 20, -24
	.cfi_offset 21, -16
	.loc 1 270 0
	mov	w19, w0
	.loc 1 272 0
	bl	get_hash_id
.LVL142:
	.loc 1 274 0
	cmp	w0, 255
	bhi	.L134
.LBB355:
.LBB356:
	.loc 2 317 0
	uxtw	x20, w0
.LVL143:
	adrp	x21, .LANCHOR1
	lsl	x0, x20, 5
	add	x21, x21, :lo12:.LANCHOR1
	sub	x0, x0, x20, lsl 3
	sub	x21, x21, #224
	add	x21, x21, x0
.LBE356:
.LBE355:
.LBB358:
	.loc 1 279 0
	lsl	x20, x20, 4
.LVL144:
.LBE358:
.LBB359:
.LBB357:
	.loc 2 317 0
	mov	x0, x21
	bl	_raw_spin_lock_bh
.LVL145:
.LBE357:
.LBE359:
.LBB360:
	.loc 1 279 0
	adrp	x0, .LANCHOR2
	add	x0, x0, :lo12:.LANCHOR2
	add	x0, x0, 1568
	add	x3, x0, x20
	ldr	x0, [x0,x20]
.LVL146:
.LBE360:
	.loc 1 279 0 is_stmt 0 discriminator 1
	cmp	x0, x3
	bne	.L131
	b	.L127
.L130:
.LBB361:
	.loc 1 279 0 discriminator 2
	ldr	x0, [x0]
.LBE361:
	.loc 1 279 0 discriminator 1
	cmp	x0, x3
	beq	.L127
.L131:
	.loc 1 280 0 is_stmt 1
	ldr	w1, [x0,16]
	cmp	w1, w19
	bne	.L130
.LBB362:
.LBB363:
	.loc 2 362 0
	mov	x0, x21
.LVL147:
	bl	_raw_spin_unlock_bh
.LVL148:
.LBE363:
.LBE362:
	.loc 1 287 0
	ldr	x21, [sp,32]
	.cfi_remember_state
	.cfi_restore 21
	.loc 1 282 0
	mov	w0, 1
	.loc 1 287 0
	ldp	x19, x20, [sp,16]
	.cfi_restore 19
	.cfi_restore 20
.LVL149:
	ldp	x29, x30, [sp], 48
	.cfi_restore 29
	.cfi_restore 30
	.cfi_def_cfa 31, 0
	ret
.LVL150:
.L127:
	.cfi_restore_state
.LBB364:
.LBB365:
	.loc 2 362 0
	mov	x0, x21
.LVL151:
	bl	_raw_spin_unlock_bh
.LVL152:
.LBE365:
.LBE364:
	.loc 1 286 0
	mov	w0, 0
.L126:
	.loc 1 287 0
	ldp	x19, x20, [sp,16]
	.cfi_remember_state
	.cfi_restore 20
	.cfi_restore 19
.LVL153:
	ldr	x21, [sp,32]
	.cfi_restore 21
	ldp	x29, x30, [sp], 48
	.cfi_restore 30
	.cfi_restore 29
	.cfi_def_cfa 31, 0
	ret
.LVL154:
.L134:
	.cfi_restore_state
	.loc 1 275 0
	mov	w1, w0
	adrp	x0, .LC4
.LVL155:
	add	x0, x0, :lo12:.LC4
	mov	w2, w19
	bl	printk
.LVL156:
	.loc 1 276 0
	mov	w0, 0
	b	.L126
	.cfi_endproc
.LFE1484:
	.size	match_ad_uid, .-match_ad_uid
	.align	2
	.global	match_url_string
	.type	match_url_string, %function
match_url_string:
.LFB1486:
	.loc 1 324 0
	.cfi_startproc
.LVL157:
	stp	x29, x30, [sp, -48]!
	.cfi_def_cfa_offset 48
	.cfi_offset 29, -48
	.cfi_offset 30, -40
	add	x29, sp, 0
	.cfi_def_cfa_register 29
	stp	x19, x20, [sp,16]
	.cfi_offset 19, -32
	.cfi_offset 20, -24
	mov	x19, x1
	.loc 1 325 0
	adrp	x1, .LC5
.LVL158:
	.loc 1 324 0
	stp	x21, x22, [sp,32]
	.cfi_offset 21, -16
	.cfi_offset 22, -8
	.loc 1 325 0
	add	x1, x1, :lo12:.LC5
	.loc 1 324 0
	mov	x22, x0
	.loc 1 325 0
	mov	x0, x19
.LVL159:
	.loc 1 324 0
	mov	w20, w2
	.loc 1 325 0
	bl	strfindpos
.LVL160:
	mov	x3, x0
.LVL161:
	.loc 1 327 0
	cbz	x0, .L141
	.loc 1 333 0
	cmp	x19, x0
	beq	.L142
	.loc 1 336 0
	sxtw	x0, w20
	sub	x1, x0, #1
	add	x1, x19, x1
	cmp	x3, x1
	beq	.L143
	.loc 1 346 0
	add	x4, x19, x0
	.loc 1 345 0
	sub	x21, x3, x19
.LBB368:
.LBB369:
	.loc 1 294 0
	mov	x1, x19
.LBE369:
.LBE368:
	.loc 1 346 0
	sub	x4, x4, x3
.LBB373:
.LBB370:
	.loc 1 294 0
	mov	x0, x22
	mov	w2, w21
.LBE370:
.LBE373:
	.loc 1 344 0
	add	x19, x3, 1
.LVL162:
	sub	w20, w4, #1
.LVL163:
.LBB374:
.LBB371:
	.loc 1 294 0
	bl	strfinds2
.LVL164:
	.loc 1 295 0
	cbz	x0, .L140
	.loc 1 298 0
	mov	x1, x19
	mov	w2, w20
	add	x0, x0, x21, sxtw
	bl	match_url_string
.LVL165:
	uxtb	w0, w0
.LVL166:
.L137:
.LBE371:
.LBE374:
	.loc 1 348 0
	ldp	x19, x20, [sp,16]
	.cfi_remember_state
	.cfi_restore 20
	.cfi_restore 19
.LVL167:
	ldp	x21, x22, [sp,32]
	.cfi_restore 22
	.cfi_restore 21
.LVL168:
	ldp	x29, x30, [sp], 48
	.cfi_restore 30
	.cfi_restore 29
	.cfi_def_cfa 31, 0
	ret
.LVL169:
.L140:
	.cfi_restore_state
.LBB375:
.LBB372:
	.loc 1 296 0
	mov	w0, 0
.LBE372:
.LBE375:
	.loc 1 348 0
	ldp	x19, x20, [sp,16]
	.cfi_remember_state
	.cfi_restore 19
	.cfi_restore 20
	ldp	x21, x22, [sp,32]
	.cfi_restore 21
	.cfi_restore 22
.LVL170:
	ldp	x29, x30, [sp], 48
	.cfi_restore 29
	.cfi_restore 30
	.cfi_def_cfa 31, 0
	ret
.LVL171:
.L143:
	.cfi_restore_state
	.loc 1 338 0
	mov	x1, x19
	sub	w2, w20, #1
	mov	x0, x22
	bl	strfinds2
.LVL172:
	cmp	x0, xzr
	cset	w0, ne
	.loc 1 348 0
	ldp	x19, x20, [sp,16]
	.cfi_remember_state
	.cfi_restore 19
	.cfi_restore 20
.LVL173:
	ldp	x21, x22, [sp,32]
	.cfi_restore 21
	.cfi_restore 22
.LVL174:
	ldp	x29, x30, [sp], 48
	.cfi_restore 29
	.cfi_restore 30
	.cfi_def_cfa 31, 0
	ret
.LVL175:
.L141:
	.cfi_restore_state
	.loc 1 329 0
	mov	x0, x22
.LVL176:
	mov	x1, x19
	mov	w2, w20
	bl	strfinds2
.LVL177:
	cmp	x0, xzr
	cset	w0, ne
	b	.L137
.LVL178:
.L142:
	.loc 1 335 0
	mov	x0, x22
.LVL179:
	add	x1, x19, 1
	sub	w2, w20, #1
	bl	match_url_string
.LVL180:
	uxtb	w0, w0
	b	.L137
	.cfi_endproc
.LFE1486:
	.size	match_url_string, .-match_url_string
	.align	2
	.global	match_ab_string
	.type	match_ab_string, %function
match_ab_string:
.LFB1485:
	.loc 1 291 0
	.cfi_startproc
.LVL181:
	stp	x29, x30, [sp, -48]!
	.cfi_def_cfa_offset 48
	.cfi_offset 29, -48
	.cfi_offset 30, -40
	add	x29, sp, 0
	.cfi_def_cfa_register 29
	str	x19, [sp,16]
	.cfi_offset 19, -32
	.loc 1 291 0
	mov	w19, w2
	str	x3, [x29,32]
	str	x4, [x29,40]
	.loc 1 294 0
	bl	strfinds2
.LVL182:
	.loc 1 295 0
	cbz	x0, .L146
	.loc 1 298 0
	ldr	x3, [x29,32]
.LVL183:
	add	x0, x0, x19, sxtw
	ldr	x4, [x29,40]
.LVL184:
	mov	x1, x3
	mov	w2, w4
	bl	match_url_string
.LVL185:
	.loc 1 299 0
	ldr	x19, [sp,16]
	.cfi_remember_state
	.cfi_restore 19
.LVL186:
	.loc 1 298 0
	uxtb	w0, w0
	.loc 1 299 0
	ldp	x29, x30, [sp], 48
	.cfi_restore 30
	.cfi_restore 29
	.cfi_def_cfa 31, 0
	ret
.LVL187:
.L146:
	.cfi_restore_state
	ldr	x19, [sp,16]
	.cfi_restore 19
.LVL188:
	.loc 1 296 0
	mov	w0, 0
	.loc 1 299 0
	ldp	x29, x30, [sp], 48
	.cfi_restore 29
	.cfi_restore 30
	.cfi_def_cfa 31, 0
	ret
	.cfi_endproc
.LFE1485:
	.size	match_ab_string, .-match_ab_string
	.align	2
	.global	match_uid_url
	.type	match_uid_url, %function
match_uid_url:
.LFB1487:
	.loc 1 352 0
	.cfi_startproc
.LVL189:
	stp	x29, x30, [sp, -48]!
	.cfi_def_cfa_offset 48
	.cfi_offset 29, -48
	.cfi_offset 30, -40
	add	x29, sp, 0
	.cfi_def_cfa_register 29
	stp	x19, x20, [sp,16]
	.cfi_offset 19, -32
	.cfi_offset 20, -24
.LBB376:
	.loc 1 356 0
	mov	x20, x0
.LBE376:
	.loc 1 352 0
	str	x21, [sp,32]
	.cfi_offset 21, -16
	.loc 1 352 0
	mov	x21, x1
.LBB377:
	.loc 1 356 0
	ldr	x19, [x20,24]!
.LVL190:
.LBE377:
	.loc 1 356 0 is_stmt 0 discriminator 1
	cmp	x19, x20
	bne	.L157
	b	.L152
.L150:
.LBB378:
	.loc 1 356 0 discriminator 2
	ldr	x19, [x19]
.LBE378:
	.loc 1 356 0 discriminator 1
	cmp	x19, x20
	beq	.L152
.L157:
	.loc 1 357 0 is_stmt 1
	ldr	w2, [x19,24]
	cbz	w2, .L150
	.loc 1 358 0
	ldr	x1, [x19,16]
	mov	x0, x21
.LVL191:
	bl	match_url_string
.LVL192:
	uxtb	w0, w0
	cbz	w0, .L150
	.loc 1 360 0
	ldr	x1, [x19,16]
	adrp	x0, .LC6
	add	x0, x0, :lo12:.LC6
	bl	printk
.LVL193:
	.loc 1 362 0
	mov	w0, 1
.LVL194:
	.loc 1 363 0
	b	.L149
.LVL195:
.L152:
	.loc 1 354 0
	mov	w0, 0
.LVL196:
.L149:
	.loc 1 368 0
	ldp	x19, x20, [sp,16]
	.cfi_restore 20
	.cfi_restore 19
.LVL197:
.LVL198:
	ldr	x21, [sp,32]
	.cfi_restore 21
	ldp	x29, x30, [sp], 48
	.cfi_restore 30
	.cfi_restore 29
	.cfi_def_cfa 31, 0
	ret
	.cfi_endproc
.LFE1487:
	.size	match_uid_url, .-match_uid_url
	.align	2
	.global	match_ad_url
	.type	match_ad_url, %function
match_ad_url:
.LFB1488:
	.loc 1 371 0
	.cfi_startproc
.LVL199:
	stp	x29, x30, [sp, -64]!
	.cfi_def_cfa_offset 64
	.cfi_offset 29, -64
	.cfi_offset 30, -56
	add	x29, sp, 0
	.cfi_def_cfa_register 29
	stp	x19, x20, [sp,16]
	stp	x21, x22, [sp,32]
	str	x23, [sp,48]
	.cfi_offset 19, -48
	.cfi_offset 20, -40
	.cfi_offset 21, -32
	.cfi_offset 22, -24
	.cfi_offset 23, -16
	.loc 1 371 0
	mov	w19, w0
	mov	x22, x1
	sxtw	x21, w2
	.loc 1 373 0
	bl	get_hash_id
.LVL200:
	uxtw	x20, w0
.LVL201:
	.loc 1 379 0
	cmp	w20, 255
	bhi	.L166
	cmn	w19, #1
	beq	.L166
	.loc 1 381 0
	mov	x0, x22
.LVL202:
	mov	w1, w21
	bl	get_url_form_data
.LVL203:
	mov	x23, x0
.LVL204:
	.loc 1 383 0
	cbz	x0, .L178
.L165:
.LBB379:
.LBB380:
	.loc 2 317 0
	adrp	x21, .LANCHOR1
.LVL205:
	lsl	x0, x20, 5
	add	x21, x21, :lo12:.LANCHOR1
	sub	x0, x0, x20, lsl 3
	sub	x21, x21, #224
.LBE380:
.LBE379:
.LBB382:
	.loc 1 392 0
	lsl	x20, x20, 4
.LVL206:
.LBE382:
.LBB383:
.LBB381:
	.loc 2 317 0
	add	x21, x21, x0
	mov	x0, x21
	bl	_raw_spin_lock_bh
.LVL207:
.LBE381:
.LBE383:
.LBB384:
	.loc 1 392 0
	adrp	x0, .LANCHOR2
	add	x0, x0, :lo12:.LANCHOR2
	add	x0, x0, 1568
	add	x2, x0, x20
	ldr	x0, [x0,x20]
.LVL208:
.LBE384:
	.loc 1 392 0 is_stmt 0 discriminator 1
	cmp	x0, x2
	bne	.L171
	b	.L172
.L170:
.LBB385:
	.loc 1 392 0 discriminator 2
	ldr	x0, [x0]
.LBE385:
	.loc 1 392 0 discriminator 1
	cmp	x0, x2
	beq	.L172
.L171:
	.loc 1 393 0 is_stmt 1
	ldr	w1, [x0,16]
	cmp	w1, w19
	bne	.L170
	.loc 1 394 0
	mov	x1, x23
	bl	match_uid_url
.LVL209:
	uxtb	w19, w0
.LVL210:
.L167:
.LBB386:
.LBB387:
	.loc 2 362 0
	mov	x0, x21
.LVL211:
	bl	_raw_spin_unlock_bh
.LVL212:
.LBE387:
.LBE386:
	.loc 1 399 0
	mov	x0, x23
	bl	kfree
.LVL213:
	.loc 1 401 0
	ldr	x23, [sp,48]
	.cfi_remember_state
	.cfi_restore 23
.LVL214:
	.loc 1 400 0
	mov	w0, w19
	.loc 1 401 0
	ldp	x19, x20, [sp,16]
	.cfi_restore 19
	.cfi_restore 20
.LVL215:
	ldp	x21, x22, [sp,32]
	.cfi_restore 21
	.cfi_restore 22
.LVL216:
	ldp	x29, x30, [sp], 64
	.cfi_restore 29
	.cfi_restore 30
	.cfi_def_cfa 31, 0
	ret
.LVL217:
.L178:
	.cfi_restore_state
	.loc 1 384 0
	add	w0, w21, 1
.LVL218:
.LBB388:
.LBB389:
	.loc 3 435 0
	mov	w1, 32
	sxtw	x0, w0
	bl	__kmalloc
.LVL219:
	mov	x23, x0
.LBE389:
.LBE388:
	.loc 1 385 0
	cbnz	x0, .L179
.L166:
	.loc 1 380 0
	mov	w0, 0
	.loc 1 401 0
	ldr	x23, [sp,48]
	.cfi_remember_state
	.cfi_restore 23
.LVL220:
	ldp	x19, x20, [sp,16]
	.cfi_restore 20
	.cfi_restore 19
.LVL221:
	ldp	x21, x22, [sp,32]
	.cfi_restore 22
	.cfi_restore 21
.LVL222:
	ldp	x29, x30, [sp], 64
	.cfi_restore 30
	.cfi_restore 29
	.cfi_def_cfa 31, 0
	ret
.LVL223:
.L172:
	.cfi_restore_state
	.loc 1 374 0
	mov	w19, 0
.LVL224:
	b	.L167
.LVL225:
.L179:
	.loc 1 387 0
	mov	x1, x22
	mov	x2, x21
.LVL226:
	bl	memcpy
.LVL227:
	.loc 1 388 0
	strb	wzr, [x23,x21]
	.loc 1 389 0
	adrp	x0, .LC7
	add	x0, x0, :lo12:.LC7
	bl	printk
.LVL228:
	b	.L165
	.cfi_endproc
.LFE1488:
	.size	match_ad_url, .-match_ad_url
	.align	2
	.global	output_ad_rule
	.type	output_ad_rule, %function
output_ad_rule:
.LFB1489:
	.loc 1 404 0
	.cfi_startproc
	stp	x29, x30, [sp, -96]!
	.cfi_def_cfa_offset 96
	.cfi_offset 29, -96
	.cfi_offset 30, -88
	.loc 1 409 0
	adrp	x0, .LC8
	.loc 1 404 0
	add	x29, sp, 0
	.cfi_def_cfa_register 29
	.loc 1 409 0
	add	x0, x0, :lo12:.LC8
	.loc 1 404 0
	stp	x19, x20, [sp,16]
	.cfi_offset 19, -80
	.cfi_offset 20, -72
	adrp	x19, .LANCHOR2
	str	x27, [sp,80]
	stp	x23, x24, [sp,48]
	stp	x21, x22, [sp,32]
	stp	x25, x26, [sp,64]
	.cfi_offset 27, -16
	.cfi_offset 23, -48
	.cfi_offset 24, -40
	.cfi_offset 21, -64
	.cfi_offset 22, -56
	.cfi_offset 25, -32
	.cfi_offset 26, -24
	add	x19, x19, :lo12:.LANCHOR2
	.loc 1 409 0
	bl	printk
.LVL229:
	adrp	x20, .LANCHOR1
	add	x19, x19, 1568
	add	x20, x20, :lo12:.LANCHOR1
	.loc 1 413 0
	adrp	x2, .LC9
	.loc 1 415 0
	adrp	x1, .LC11
	.loc 1 418 0
	adrp	x0, .LC10
	sub	x20, x20, #224
	add	x22, x19, 4096
	.loc 1 413 0
	add	x25, x2, :lo12:.LC9
	.loc 1 415 0
	add	x24, x1, :lo12:.LC11
	.loc 1 418 0
	add	x23, x0, :lo12:.LC10
.LVL230:
.L182:
.LBB390:
.LBB391:
	.loc 2 317 0
	mov	x0, x20
	bl	_raw_spin_lock_bh
.LVL231:
.LBE391:
.LBE390:
.LBB392:
	.loc 1 412 0
	ldr	x21, [x19]
.LBE392:
	.loc 1 412 0 is_stmt 0 discriminator 1
	cmp	x21, x19
	bne	.L185
.L186:
.LBB393:
.LBB394:
	.loc 2 362 0 is_stmt 1
	mov	x0, x20
	add	x19, x19, 16
	add	x20, x20, 24
	bl	_raw_spin_unlock_bh
.LVL232:
.LBE394:
.LBE393:
	.loc 1 410 0 discriminator 1
	cmp	x19, x22
	bne	.L182
	.loc 1 422 0
	adrp	x0, .LC12
	add	x0, x0, :lo12:.LC12
	bl	printk
.LVL233:
	.loc 1 423 0
	ldr	x27, [sp,80]
	.cfi_remember_state
	.cfi_restore 27
	ldp	x19, x20, [sp,16]
	.cfi_restore 20
	.cfi_restore 19
	ldp	x21, x22, [sp,32]
	.cfi_restore 22
	.cfi_restore 21
.LVL234:
	ldp	x23, x24, [sp,48]
	.cfi_restore 24
	.cfi_restore 23
	ldp	x25, x26, [sp,64]
	.cfi_restore 26
	.cfi_restore 25
.LVL235:
	ldp	x29, x30, [sp], 96
	.cfi_restore 30
	.cfi_restore 29
	.cfi_def_cfa 31, 0
	ret
.LVL236:
.L185:
	.cfi_restore_state
.LBB395:
	.loc 1 414 0
	mov	x27, x21
.LBE395:
	.loc 1 413 0
	ldr	w1, [x21,16]
	mov	x0, x25
	bl	printk
.LVL237:
.LBB396:
	.loc 1 414 0
	ldr	x26, [x27,24]!
.LBE396:
	.loc 1 414 0 is_stmt 0 discriminator 1
	cmp	x26, x27
	bne	.L187
.L188:
	.loc 1 418 0 is_stmt 1
	mov	x0, x23
	bl	printk
.LVL238:
.LBB397:
	.loc 1 412 0 discriminator 2
	ldr	x21, [x21]
.LBE397:
	.loc 1 412 0 is_stmt 0 discriminator 1
	cmp	x21, x19
	beq	.L186
	b	.L185
.L187:
	.loc 1 415 0 is_stmt 1
	ldr	x1, [x26,16]
	mov	x0, x24
	ldr	w2, [x26,24]
	bl	printk
.LVL239:
.LBB398:
	.loc 1 414 0 discriminator 3
	ldr	x26, [x26]
.LBE398:
	.loc 1 414 0 is_stmt 0 discriminator 1
	cmp	x26, x27
	beq	.L188
	b	.L187
	.cfi_endproc
.LFE1489:
	.size	output_ad_rule, .-output_ad_rule
	.align	2
	.global	init_ad
	.type	init_ad, %function
init_ad:
.LFB1490:
	.loc 1 426 0 is_stmt 1
	.cfi_startproc
	stp	x29, x30, [sp, -80]!
	.cfi_def_cfa_offset 80
	.cfi_offset 29, -80
	.cfi_offset 30, -72
	add	x29, sp, 0
	.cfi_def_cfa_register 29
	stp	x21, x22, [sp,32]
	.cfi_offset 21, -48
	.cfi_offset 22, -40
	.loc 1 429 0
	adrp	x22, .LANCHOR1
	adrp	x21, .LANCHOR3
	.loc 1 426 0
	stp	x19, x20, [sp,16]
	.cfi_offset 19, -64
	.cfi_offset 20, -56
	.loc 1 429 0
	add	x20, x22, :lo12:.LANCHOR1
	adrp	x19, .LANCHOR2
	add	x19, x19, :lo12:.LANCHOR2
	.loc 1 426 0
	str	x25, [sp,64]
	stp	x23, x24, [sp,48]
	.cfi_offset 25, -16
	.cfi_offset 23, -32
	.cfi_offset 24, -24
	add	x19, x19, 1568
.LBB399:
	.loc 1 432 0 discriminator 1
	add	x23, x21, :lo12:.LANCHOR3
	adrp	x24, .LC13
.LBE399:
	.loc 1 429 0
	str	wzr, [x20,-232]
	add	x25, x19, 4096
	sub	x20, x20, #224
.LBB400:
	.loc 1 432 0 discriminator 1
	add	x24, x24, :lo12:.LC13
	add	x23, x23, 1312
.L195:
	mov	x0, x20
.LBE400:
.LBB401:
.LBB402:
	.loc 4 27 0
	str	x19, [x19]
	.loc 4 28 0
	str	x19, [x19,8]
.LBE402:
.LBE401:
.LBB403:
	.loc 1 432 0 discriminator 1
	mov	x1, x24
	mov	x2, x23
	add	x19, x19, 16
	add	x20, x20, 24
	bl	__raw_spin_lock_init
.LVL240:
.LBE403:
	.loc 1 430 0 discriminator 1
	cmp	x19, x25
	bne	.L195
	adrp	x0, .LANCHOR0
	add	x0, x0, :lo12:.LANCHOR0
	add	x1, x0, 4096
	add	x0, x0, 16
	add	x1, x1, 16
.L196:
	.loc 1 435 0
	str	xzr, [x0]
	add	x0, x0, 32
	.loc 1 434 0 discriminator 1
	cmp	x0, x1
	.loc 1 436 0
	str	wzr, [x0,-24]
	.loc 1 434 0 discriminator 1
	bne	.L196
.LBB404:
	.loc 1 438 0 discriminator 1
	add	x0, x22, :lo12:.LANCHOR1
	add	x2, x21, :lo12:.LANCHOR3
	adrp	x1, .LC14
	sub	x0, x0, #256
	add	x1, x1, :lo12:.LC14
	add	x2, x2, 1312
	bl	__raw_spin_lock_init
.LVL241:
.LBE404:
	.loc 1 439 0
	ldr	x25, [sp,64]
	.cfi_restore 25
	ldp	x19, x20, [sp,16]
	.cfi_restore 20
	.cfi_restore 19
	ldp	x21, x22, [sp,32]
	.cfi_restore 22
	.cfi_restore 21
	ldp	x23, x24, [sp,48]
	.cfi_restore 24
	.cfi_restore 23
	ldp	x29, x30, [sp], 80
	.cfi_restore 30
	.cfi_restore 29
	.cfi_def_cfa 31, 0
	ret
	.cfi_endproc
.LFE1490:
	.size	init_ad, .-init_ad
	.align	2
	.global	uninit_ad
	.type	uninit_ad, %function
uninit_ad:
.LFB1491:
	.loc 1 442 0
	.cfi_startproc
	stp	x29, x30, [sp, -32]!
	.cfi_def_cfa_offset 32
	.cfi_offset 29, -32
	.cfi_offset 30, -24
	.loc 1 445 0
	adrp	x1, .LC3
	mov	w0, 1
	.loc 1 442 0
	add	x29, sp, 0
	.cfi_def_cfa_register 29
	stp	x19, x20, [sp,16]
	.cfi_offset 19, -16
	.cfi_offset 20, -8
	adrp	x19, .LANCHOR0
	.loc 1 445 0
	add	x1, x1, :lo12:.LC3
	add	x19, x19, :lo12:.LANCHOR0
	add	x20, x19, 4096
	add	x19, x19, 16
	add	x20, x20, 16
	bl	clear_ad_rule
.LVL242:
.L200:
	.loc 1 447 0
	ldr	x0, [x19]
	add	x19, x19, 32
	bl	kfree
.LVL243:
	.loc 1 448 0
	str	xzr, [x19,-32]
	.loc 1 449 0
	str	wzr, [x19,-24]
	.loc 1 446 0 discriminator 1
	cmp	x19, x20
	bne	.L200
	.loc 1 451 0
	ldp	x19, x20, [sp,16]
	.cfi_restore 20
	.cfi_restore 19
	ldp	x29, x30, [sp], 32
	.cfi_restore 30
	.cfi_restore 29
	.cfi_def_cfa 31, 0
	ret
	.cfi_endproc
.LFE1491:
	.size	uninit_ad, .-uninit_ad
	.section	.rodata.str1.8,"aMS",%progbits,1
	.align	3
.LC0:
	.string	"\0016hwad: already in list url=%s"
	.zero	1
.LC1:
	.string	"\0016hwad:url to list>=MAX_HASH id=%u\n"
	.zero	4
.LC2:
	.string	"\0016hwad:add_ad_rule_to_list newuid=%u url=<%s>\n"
	.zero	1
.LC3:
	.string	""
	.zero	7
.LC4:
	.string	"\0016hwad:match_ad_uid>=MAX_hid=%uuid=%u\n"
	.zero	1
.LC5:
	.string	"*"
	.zero	6
.LC6:
	.string	"\0016hwad: match_url_string true rule=%s\n"
	.zero	1
.LC7:
	.string	"\0016hwad:match_ad_url multi part\n"
.LC8:
	.string	"\0016hwad:output_ad_rule start\n"
	.zero	3
.LC9:
	.string	"\0016hwad:output_ad_rule uid=%d\n"
	.zero	2
.LC10:
	.string	"\0016\n"
	.zero	4
.LC11:
	.string	"\0016hwad:output_ad_rule=%s len=%d\n"
	.zero	7
.LC12:
	.string	"\0016hwad: output_ad_rule  end\n"
	.zero	3
.LC13:
	.string	"&(&g_adlock[i])->rlock"
	.zero	1
.LC14:
	.string	"&(&g_droplock)->rlock"
	.bss
	.align	3
.LANCHOR0 = . + 0
.LANCHOR1 = . + 4352
.LANCHOR2 = . + 8704
.LANCHOR3 = . + 13056
	.type	g_droparr, %object
	.size	g_droparr, 4096
g_droparr:
	.zero	4096
	.type	g_droplock, %object
	.size	g_droplock, 24
g_droplock:
	.zero	24
	.type	g_curcount, %object
	.size	g_curcount, 4
g_curcount:
	.zero	4
	.zero	4
	.type	g_adlock, %object
	.size	g_adlock, 6144
g_adlock:
	.zero	6144
	.type	g_adhead, %object
	.size	g_adhead, 4096
g_adhead:
	.zero	4096
	.type	__key.17217, %object
	.size	__key.17217, 0
__key.17217:
	.type	__key.17224, %object
	.size	__key.17224, 0
__key.17224:
	.text
.Letext0:
	.file 5 "/mnt/disk/jenkins2/ci/workspace/chipset_component_FRD_b160_Open_Source/component_code/vendor/huawei/extra/build/build_script/austin_kernel_release/kernel/include/uapi/asm-generic/int-ll64.h"
	.file 6 "/mnt/disk/jenkins2/ci/workspace/chipset_component_FRD_b160_Open_Source/component_code/vendor/huawei/extra/build/build_script/austin_kernel_release/kernel/include/asm-generic/int-ll64.h"
	.file 7 "/mnt/disk/jenkins2/ci/workspace/chipset_component_FRD_b160_Open_Source/component_code/vendor/huawei/extra/build/build_script/austin_kernel_release/kernel/include/uapi/asm-generic/posix_types.h"
	.file 8 "/mnt/disk/jenkins2/ci/workspace/chipset_component_FRD_b160_Open_Source/component_code/vendor/huawei/extra/build/build_script/austin_kernel_release/kernel/include/linux/types.h"
	.file 9 "/mnt/disk/jenkins2/ci/workspace/chipset_component_FRD_b160_Open_Source/component_code/vendor/huawei/extra/build/build_script/austin_kernel_release/kernel/include/linux/capability.h"
	.file 10 "/mnt/disk/jenkins2/ci/workspace/chipset_component_FRD_b160_Open_Source/component_code/vendor/huawei/extra/build/build_script/austin_kernel_release/kernel/include/linux/thread_info.h"
	.file 11 "/mnt/disk/jenkins2/ci/workspace/chipset_component_FRD_b160_Open_Source/component_code/vendor/huawei/extra/build/build_script/austin_kernel_release/kernel/include/uapi/linux/time.h"
	.file 12 "/mnt/disk/jenkins2/ci/workspace/chipset_component_FRD_b160_Open_Source/component_code/vendor/huawei/extra/build/build_script/austin_kernel_release/kernel/arch/arm64/include/asm/compat.h"
	.file 13 "/mnt/disk/jenkins2/ci/workspace/chipset_component_FRD_b160_Open_Source/component_code/vendor/huawei/extra/build/build_script/austin_kernel_release/kernel/include/linux/sched.h"
	.file 14 "/mnt/disk/jenkins2/ci/workspace/chipset_component_FRD_b160_Open_Source/component_code/vendor/huawei/extra/build/build_script/austin_kernel_release/kernel/arch/arm64/include/uapi/asm/ptrace.h"
	.file 15 "/mnt/disk/jenkins2/ci/workspace/chipset_component_FRD_b160_Open_Source/component_code/vendor/huawei/extra/build/build_script/austin_kernel_release/kernel/arch/arm64/include/asm/spinlock_types.h"
	.file 16 "/mnt/disk/jenkins2/ci/workspace/chipset_component_FRD_b160_Open_Source/component_code/vendor/huawei/extra/build/build_script/austin_kernel_release/kernel/include/linux/spinlock_types.h"
	.file 17 "/mnt/disk/jenkins2/ci/workspace/chipset_component_FRD_b160_Open_Source/component_code/vendor/huawei/extra/build/build_script/austin_kernel_release/kernel/arch/arm64/include/asm/fpsimd.h"
	.file 18 "/mnt/disk/jenkins2/ci/workspace/chipset_component_FRD_b160_Open_Source/component_code/vendor/huawei/extra/build/build_script/austin_kernel_release/kernel/arch/arm64/include/asm/processor.h"
	.file 19 "/mnt/disk/jenkins2/ci/workspace/chipset_component_FRD_b160_Open_Source/component_code/vendor/huawei/extra/build/build_script/austin_kernel_release/kernel/include/asm-generic/atomic-long.h"
	.file 20 "/mnt/disk/jenkins2/ci/workspace/chipset_component_FRD_b160_Open_Source/component_code/vendor/huawei/extra/build/build_script/austin_kernel_release/kernel/include/linux/seqlock.h"
	.file 21 "/mnt/disk/jenkins2/ci/workspace/chipset_component_FRD_b160_Open_Source/component_code/vendor/huawei/extra/build/build_script/austin_kernel_release/kernel/include/linux/plist.h"
	.file 22 "/mnt/disk/jenkins2/ci/workspace/chipset_component_FRD_b160_Open_Source/component_code/vendor/huawei/extra/build/build_script/austin_kernel_release/kernel/include/linux/rbtree.h"
	.file 23 "/mnt/disk/jenkins2/ci/workspace/chipset_component_FRD_b160_Open_Source/component_code/vendor/huawei/extra/build/build_script/austin_kernel_release/kernel/include/linux/cpumask.h"
	.file 24 "/mnt/disk/jenkins2/ci/workspace/chipset_component_FRD_b160_Open_Source/component_code/vendor/huawei/extra/build/build_script/austin_kernel_release/kernel/include/linux/nodemask.h"
	.file 25 "/mnt/disk/jenkins2/ci/workspace/chipset_component_FRD_b160_Open_Source/component_code/vendor/huawei/extra/build/build_script/austin_kernel_release/kernel/include/linux/osq_lock.h"
	.file 26 "/mnt/disk/jenkins2/ci/workspace/chipset_component_FRD_b160_Open_Source/component_code/vendor/huawei/extra/build/build_script/austin_kernel_release/kernel/include/linux/rwsem.h"
	.file 27 "/mnt/disk/jenkins2/ci/workspace/chipset_component_FRD_b160_Open_Source/component_code/vendor/huawei/extra/build/build_script/austin_kernel_release/kernel/include/linux/wait.h"
	.file 28 "/mnt/disk/jenkins2/ci/workspace/chipset_component_FRD_b160_Open_Source/component_code/vendor/huawei/extra/build/build_script/austin_kernel_release/kernel/include/linux/completion.h"
	.file 29 "/mnt/disk/jenkins2/ci/workspace/chipset_component_FRD_b160_Open_Source/component_code/vendor/huawei/extra/build/build_script/austin_kernel_release/kernel/include/linux/mm_types.h"
	.file 30 "/mnt/disk/jenkins2/ci/workspace/chipset_component_FRD_b160_Open_Source/component_code/vendor/huawei/extra/build/build_script/austin_kernel_release/kernel/include/linux/lockdep.h"
	.file 31 "/mnt/disk/jenkins2/ci/workspace/chipset_component_FRD_b160_Open_Source/component_code/vendor/huawei/extra/build/build_script/austin_kernel_release/kernel/include/linux/uprobes.h"
	.file 32 "/mnt/disk/jenkins2/ci/workspace/chipset_component_FRD_b160_Open_Source/component_code/vendor/huawei/extra/build/build_script/austin_kernel_release/kernel/arch/arm64/include/asm/pgtable-types.h"
	.file 33 "/mnt/disk/jenkins2/ci/workspace/chipset_component_FRD_b160_Open_Source/component_code/vendor/huawei/extra/build/build_script/austin_kernel_release/kernel/arch/arm64/include/asm/mmu.h"
	.file 34 "/mnt/disk/jenkins2/ci/workspace/chipset_component_FRD_b160_Open_Source/component_code/vendor/huawei/extra/build/build_script/austin_kernel_release/kernel/include/linux/mm.h"
	.file 35 "/mnt/disk/jenkins2/ci/workspace/chipset_component_FRD_b160_Open_Source/component_code/vendor/huawei/extra/build/build_script/austin_kernel_release/kernel/include/linux/stddef.h"
	.file 36 "/mnt/disk/jenkins2/ci/workspace/chipset_component_FRD_b160_Open_Source/component_code/vendor/huawei/extra/build/build_script/austin_kernel_release/kernel/include/asm-generic/cputime_jiffies.h"
	.file 37 "/mnt/disk/jenkins2/ci/workspace/chipset_component_FRD_b160_Open_Source/component_code/vendor/huawei/extra/build/build_script/austin_kernel_release/kernel/include/linux/llist.h"
	.file 38 "/mnt/disk/jenkins2/ci/workspace/chipset_component_FRD_b160_Open_Source/component_code/vendor/huawei/extra/build/build_script/austin_kernel_release/kernel/include/linux/uidgid.h"
	.file 39 "/mnt/disk/jenkins2/ci/workspace/chipset_component_FRD_b160_Open_Source/component_code/vendor/huawei/extra/build/build_script/austin_kernel_release/kernel/include/linux/sem.h"
	.file 40 "/mnt/disk/jenkins2/ci/workspace/chipset_component_FRD_b160_Open_Source/component_code/vendor/huawei/extra/build/build_script/austin_kernel_release/kernel/include/linux/shm.h"
	.file 41 "/mnt/disk/jenkins2/ci/workspace/chipset_component_FRD_b160_Open_Source/component_code/vendor/huawei/extra/build/build_script/austin_kernel_release/kernel/include/uapi/asm-generic/signal.h"
	.file 42 "/mnt/disk/jenkins2/ci/workspace/chipset_component_FRD_b160_Open_Source/component_code/vendor/huawei/extra/build/build_script/austin_kernel_release/kernel/include/uapi/asm-generic/signal-defs.h"
	.file 43 "/mnt/disk/jenkins2/ci/workspace/chipset_component_FRD_b160_Open_Source/component_code/vendor/huawei/extra/build/build_script/austin_kernel_release/kernel/include/uapi/asm-generic/siginfo.h"
	.file 44 "/mnt/disk/jenkins2/ci/workspace/chipset_component_FRD_b160_Open_Source/component_code/vendor/huawei/extra/build/build_script/austin_kernel_release/kernel/include/linux/signal.h"
	.file 45 "/mnt/disk/jenkins2/ci/workspace/chipset_component_FRD_b160_Open_Source/component_code/vendor/huawei/extra/build/build_script/austin_kernel_release/kernel/include/linux/pid.h"
	.file 46 "/mnt/disk/jenkins2/ci/workspace/chipset_component_FRD_b160_Open_Source/component_code/vendor/huawei/extra/build/build_script/austin_kernel_release/kernel/include/linux/pid_namespace.h"
	.file 47 "/mnt/disk/jenkins2/ci/workspace/chipset_component_FRD_b160_Open_Source/component_code/vendor/huawei/extra/build/build_script/austin_kernel_release/kernel/include/linux/percpu.h"
	.file 48 "/mnt/disk/jenkins2/ci/workspace/chipset_component_FRD_b160_Open_Source/component_code/vendor/huawei/extra/build/build_script/austin_kernel_release/kernel/include/linux/mmzone.h"
	.file 49 "/mnt/disk/jenkins2/ci/workspace/chipset_component_FRD_b160_Open_Source/component_code/vendor/huawei/extra/build/build_script/austin_kernel_release/kernel/include/linux/mutex.h"
	.file 50 "/mnt/disk/jenkins2/ci/workspace/chipset_component_FRD_b160_Open_Source/component_code/vendor/huawei/extra/build/build_script/austin_kernel_release/kernel/include/linux/ktime.h"
	.file 51 "/mnt/disk/jenkins2/ci/workspace/chipset_component_FRD_b160_Open_Source/component_code/vendor/huawei/extra/build/build_script/austin_kernel_release/kernel/include/linux/workqueue.h"
	.file 52 "/mnt/disk/jenkins2/ci/workspace/chipset_component_FRD_b160_Open_Source/component_code/vendor/huawei/extra/build/build_script/austin_kernel_release/kernel/include/linux/seccomp.h"
	.file 53 "/mnt/disk/jenkins2/ci/workspace/chipset_component_FRD_b160_Open_Source/component_code/vendor/huawei/extra/build/build_script/austin_kernel_release/kernel/include/uapi/linux/resource.h"
	.file 54 "/mnt/disk/jenkins2/ci/workspace/chipset_component_FRD_b160_Open_Source/component_code/vendor/huawei/extra/build/build_script/austin_kernel_release/kernel/include/linux/timerqueue.h"
	.file 55 "/mnt/disk/jenkins2/ci/workspace/chipset_component_FRD_b160_Open_Source/component_code/vendor/huawei/extra/build/build_script/austin_kernel_release/kernel/include/linux/timer.h"
	.file 56 "/mnt/disk/jenkins2/ci/workspace/chipset_component_FRD_b160_Open_Source/component_code/vendor/huawei/extra/build/build_script/austin_kernel_release/kernel/include/linux/hrtimer.h"
	.file 57 "/mnt/disk/jenkins2/ci/workspace/chipset_component_FRD_b160_Open_Source/component_code/vendor/huawei/extra/build/build_script/austin_kernel_release/kernel/include/linux/task_io_accounting.h"
	.file 58 "/mnt/disk/jenkins2/ci/workspace/chipset_component_FRD_b160_Open_Source/component_code/vendor/huawei/extra/build/build_script/austin_kernel_release/kernel/include/linux/nsproxy.h"
	.file 59 "/mnt/disk/jenkins2/ci/workspace/chipset_component_FRD_b160_Open_Source/component_code/vendor/huawei/extra/build/build_script/austin_kernel_release/kernel/include/linux/assoc_array.h"
	.file 60 "/mnt/disk/jenkins2/ci/workspace/chipset_component_FRD_b160_Open_Source/component_code/vendor/huawei/extra/build/build_script/austin_kernel_release/kernel/include/linux/key.h"
	.file 61 "/mnt/disk/jenkins2/ci/workspace/chipset_component_FRD_b160_Open_Source/component_code/vendor/huawei/extra/build/build_script/austin_kernel_release/kernel/include/linux/cred.h"
	.file 62 "/mnt/disk/jenkins2/ci/workspace/chipset_component_FRD_b160_Open_Source/component_code/vendor/huawei/extra/build/build_script/austin_kernel_release/kernel/include/linux/vm_event_item.h"
	.file 63 "/mnt/disk/jenkins2/ci/workspace/chipset_component_FRD_b160_Open_Source/component_code/vendor/huawei/extra/build/build_script/austin_kernel_release/kernel/include/linux/vmstat.h"
	.file 64 "/mnt/disk/jenkins2/ci/workspace/chipset_component_FRD_b160_Open_Source/component_code/vendor/huawei/extra/build/build_script/austin_kernel_release/kernel/include/linux/kref.h"
	.file 65 "/mnt/disk/jenkins2/ci/workspace/chipset_component_FRD_b160_Open_Source/component_code/vendor/huawei/extra/build/build_script/austin_kernel_release/kernel/include/linux/ns_common.h"
	.file 66 "/mnt/disk/jenkins2/ci/workspace/chipset_component_FRD_b160_Open_Source/component_code/vendor/huawei/extra/build/build_script/austin_kernel_release/kernel/include/asm-generic/bitops/builtin-__fls.h"
	.file 67 "/mnt/disk/jenkins2/ci/workspace/chipset_component_FRD_b160_Open_Source/component_code/vendor/huawei/extra/build/build_script/austin_kernel_release/kernel/include/asm-generic/bitops/fls64.h"
	.file 68 "/mnt/disk/jenkins2/ci/workspace/chipset_component_FRD_b160_Open_Source/component_code/vendor/huawei/extra/build/build_script/austin_kernel_release/kernel/include/linux/log2.h"
	.file 69 "/mnt/disk/jenkins2/ci/workspace/chipset_component_FRD_b160_Open_Source/component_code/vendor/huawei/extra/build/build_script/austin_kernel_release/kernel/include/asm-generic/getorder.h"
	.file 70 "/mnt/disk/jenkins2/ci/workspace/chipset_component_FRD_b160_Open_Source/component_code/vendor/huawei/extra/build/build_script/austin_kernel_release/kernel/arch/arm64/include/asm/cachetype.h"
	.file 71 "/mnt/disk/jenkins2/ci/workspace/chipset_component_FRD_b160_Open_Source/component_code/vendor/huawei/extra/build/build_script/austin_kernel_release/kernel/include/linux/printk.h"
	.file 72 "/mnt/disk/jenkins2/ci/workspace/chipset_component_FRD_b160_Open_Source/component_code/vendor/huawei/extra/build/build_script/austin_kernel_release/kernel/include/linux/kernel.h"
	.file 73 "/mnt/disk/jenkins2/ci/workspace/chipset_component_FRD_b160_Open_Source/component_code/vendor/huawei/extra/build/build_script/austin_kernel_release/kernel/arch/arm64/include/asm/thread_info.h"
	.file 74 "/mnt/disk/jenkins2/ci/workspace/chipset_component_FRD_b160_Open_Source/component_code/vendor/huawei/extra/build/build_script/austin_kernel_release/kernel/include/linux/jiffies.h"
	.file 75 "/mnt/disk/jenkins2/ci/workspace/chipset_component_FRD_b160_Open_Source/component_code/vendor/huawei/extra/build/build_script/austin_kernel_release/kernel/arch/arm64/include/asm/memory.h"
	.file 76 "/mnt/disk/jenkins2/ci/workspace/chipset_component_FRD_b160_Open_Source/component_code/vendor/huawei/extra/build/build_script/austin_kernel_release/kernel/include/linux/highuid.h"
	.file 77 "/mnt/disk/jenkins2/ci/workspace/chipset_component_FRD_b160_Open_Source/component_code/vendor/huawei/extra/build/build_script/austin_kernel_release/kernel/include/asm-generic/percpu.h"
	.file 78 "/mnt/disk/jenkins2/ci/workspace/chipset_component_FRD_b160_Open_Source/component_code/vendor/huawei/extra/build/build_script/austin_kernel_release/kernel/include/linux/percpu_counter.h"
	.file 79 "/mnt/disk/jenkins2/ci/workspace/chipset_component_FRD_b160_Open_Source/component_code/vendor/huawei/extra/build/build_script/austin_kernel_release/kernel/include/linux/debug_locks.h"
	.file 80 "/mnt/disk/jenkins2/ci/workspace/chipset_component_FRD_b160_Open_Source/component_code/vendor/huawei/extra/build/build_script/austin_kernel_release/kernel/include/asm-generic/pgtable.h"
	.file 81 "/mnt/disk/jenkins2/ci/workspace/chipset_component_FRD_b160_Open_Source/component_code/vendor/huawei/extra/build/build_script/austin_kernel_release/kernel/include/linux/jump_label.h"
	.file 82 "/mnt/disk/jenkins2/ci/workspace/chipset_component_FRD_b160_Open_Source/component_code/vendor/huawei/extra/build/build_script/austin_kernel_release/kernel/include/linux/ctype.h"
	.file 83 "/mnt/disk/jenkins2/ci/workspace/chipset_component_FRD_b160_Open_Source/component_code/vendor/huawei/extra/build/build_script/austin_kernel_release/kernel/arch/arm64/include/asm/string.h"
	.file 84 "/mnt/disk/jenkins2/ci/workspace/chipset_component_FRD_b160_Open_Source/component_code/vendor/huawei/extra/build/build_script/austin_kernel_release/kernel/include/linux/spinlock_api_smp.h"
	.file 85 "/mnt/disk/jenkins2/ci/workspace/chipset_component_FRD_b160_Open_Source/component_code/vendor/huawei/extra/build/build_script/austin_kernel_release/kernel/drivers/huawei_platform/net/hw_netfilter/nf_hw_common.h"
	.file 86 "<built-in>"
	.section	.note.GNU-stack,"",%progbits
