	.cpu generic+fp+simd
	.file	"nf_hw_common.c"
	.text
.Ltext0:
	.cfi_sections	.debug_frame
	.align	2
	.global	strfind
	.type	strfind, %function
strfind:
.LFB1474:
	.file 1 "/mnt/disk/jenkins2/ci/workspace/chipset_component_FRD_b160_Open_Source/component_code/vendor/huawei/extra/build/build_script/austin_kernel_release/kernel/drivers/huawei_platform/net/hw_netfilter/nf_hw_common.c"
	.loc 1 13 0
	.cfi_startproc
.LVL0:
.LBB210:
.LBB211:
	.file 2 "/mnt/disk/jenkins2/ci/workspace/chipset_component_FRD_b160_Open_Source/component_code/vendor/huawei/extra/build/build_script/austin_kernel_release/kernel/include/linux/ctype.h"
	.loc 2 40 0
	adrp	x8, _ctype
.LBE211:
.LBE210:
	.loc 1 15 0
	mov	x5, x1
	.loc 1 14 0
	mov	x6, x0
.LBB216:
.LBB212:
	.loc 2 40 0
	add	x8, x8, :lo12:_ctype
.LVL1:
.L2:
.LBE212:
.LBE216:
	.loc 1 18 0
	ldrb	w2, [x5]
	cbz	w2, .L14
.L17:
	.loc 1 20 0
	ldrb	w3, [x6]
	cmp	w2, w3
	beq	.L4
.LBB217:
.LBB213:
	.loc 2 40 0
	ldrb	w4, [x8,w2,sxtw]
	tbnz	x4, 0, .L16
.LBE213:
.LBE217:
.LBB218:
.LBB219:
	ldrb	w4, [x8,w3,sxtw]
	tbz	x4, 0, .L7
.L9:
	.loc 2 41 0
	add	w7, w3, 32
	uxtb	w7, w7
.L6:
.LBE219:
.LBE218:
	.loc 1 20 0 discriminator 1
	cmp	w2, w7
	beq	.L4
.L7:
	.loc 1 25 0
	cbz	w3, .L12
	.loc 1 24 0
	mov	x5, x1
	.loc 1 27 0
	add	x0, x0, 1
	mov	x6, x0
	.loc 1 18 0
	ldrb	w2, [x5]
	cbnz	w2, .L17
.L14:
	.loc 1 30 0
	ret
.LVL2:
.L4:
	.loc 1 21 0
	add	x5, x5, 1
	.loc 1 22 0
	add	x6, x6, 1
	b	.L2
.LVL3:
.L16:
.LBB223:
.LBB220:
	.loc 2 40 0
	ldrb	w4, [x8,w3,sxtw]
.LBE220:
.LBE223:
.LBB224:
.LBB214:
	.loc 2 41 0
	add	w2, w2, 32
.LVL4:
.LBE214:
.LBE224:
.LBB225:
.LBB221:
	.loc 2 40 0
	mov	w7, w3
.LBE221:
.LBE225:
.LBB226:
.LBB215:
	.loc 2 41 0
	uxtb	w2, w2
.LVL5:
.LBE215:
.LBE226:
.LBB227:
.LBB222:
	.loc 2 40 0
	tbz	x4, 0, .L6
	b	.L9
.L12:
.LBE222:
.LBE227:
	.loc 1 26 0
	mov	x0, 0
	.loc 1 30 0
	ret
	.cfi_endproc
.LFE1474:
	.size	strfind, .-strfind
	.align	2
	.global	strfindpos
	.type	strfindpos, %function
strfindpos:
.LFB1475:
	.loc 1 33 0
	.cfi_startproc
.LVL6:
.LBB228:
.LBB229:
	.loc 2 40 0
	adrp	x9, _ctype
.LBE229:
.LBE228:
	.loc 1 35 0
	mov	x6, x1
	.loc 1 34 0
	mov	x8, x0
.LBB234:
.LBB230:
	.loc 2 40 0
	add	x9, x9, :lo12:_ctype
.LVL7:
.L19:
.LBE230:
.LBE234:
	.loc 1 38 0
	ldrb	w3, [x6]
	cbz	w3, .L31
.L33:
	.loc 1 40 0
	ldrb	w4, [x8]
	cmp	w3, w4
	beq	.L21
.LBB235:
.LBB231:
	.loc 2 40 0
	ldrb	w5, [x9,w3,sxtw]
	tbnz	x5, 0, .L32
.LBE231:
.LBE235:
.LBB236:
.LBB237:
	ldrb	w5, [x9,w4,sxtw]
	tbz	x5, 0, .L24
.L26:
	.loc 2 41 0
	add	w7, w4, 32
	uxtb	w7, w7
.L23:
.LBE237:
.LBE236:
	.loc 1 40 0 discriminator 1
	cmp	w3, w7
	beq	.L21
.L24:
	.loc 1 45 0 discriminator 1
	cbz	w4, .L29
	cbz	w2, .L29
	.loc 1 44 0
	mov	x6, x1
	.loc 1 47 0
	add	x0, x0, 1
	.loc 1 48 0
	sub	w2, w2, #1
	.loc 1 47 0
	mov	x8, x0
	.loc 1 38 0
	ldrb	w3, [x6]
	cbnz	w3, .L33
.L31:
	.loc 1 51 0
	ret
.LVL8:
.L21:
	.loc 1 41 0
	add	x6, x6, 1
	.loc 1 42 0
	add	x8, x8, 1
	b	.L19
.LVL9:
.L32:
.LBB241:
.LBB238:
	.loc 2 40 0
	ldrb	w5, [x9,w4,sxtw]
.LBE238:
.LBE241:
.LBB242:
.LBB232:
	.loc 2 41 0
	add	w3, w3, 32
.LVL10:
.LBE232:
.LBE242:
.LBB243:
.LBB239:
	.loc 2 40 0
	mov	w7, w4
.LBE239:
.LBE243:
.LBB244:
.LBB233:
	.loc 2 41 0
	uxtb	w3, w3
.LVL11:
.LBE233:
.LBE244:
.LBB245:
.LBB240:
	.loc 2 40 0
	tbz	x5, 0, .L23
	b	.L26
.L29:
.LBE240:
.LBE245:
	.loc 1 46 0
	mov	x0, 0
	.loc 1 51 0
	ret
	.cfi_endproc
.LFE1475:
	.size	strfindpos, .-strfindpos
	.align	2
	.global	strfinds2
	.type	strfinds2, %function
strfinds2:
.LFB1476:
	.loc 1 54 0
	.cfi_startproc
.LVL12:
.LBB246:
.LBB247:
	.loc 2 40 0
	adrp	x9, _ctype
.LBE247:
.LBE246:
	.loc 1 56 0
	mov	x5, x1
	.loc 1 55 0
	mov	x7, x0
.LBB252:
.LBB248:
	.loc 2 40 0
	add	x9, x9, :lo12:_ctype
	add	x2, x1, x2, sxtw
.LVL13:
.L35:
.LBE248:
.LBE252:
	.loc 1 59 0
	cmp	x5, x2
	beq	.L48
.L50:
	.loc 1 59 0 is_stmt 0 discriminator 1
	ldrb	w3, [x5]
	cbz	w3, .L48
	.loc 1 61 0 is_stmt 1
	ldrb	w4, [x7]
	cmp	w3, w4
	beq	.L37
.LBB253:
.LBB249:
	.loc 2 40 0
	ldrb	w6, [x9,w3,sxtw]
	tbnz	x6, 0, .L49
.LBE249:
.LBE253:
.LBB254:
.LBB255:
	ldrb	w6, [x9,w4,sxtw]
	tbz	x6, 0, .L40
.L42:
	.loc 2 41 0
	add	w8, w4, 32
	uxtb	w8, w8
.L39:
.LBE255:
.LBE254:
	.loc 1 61 0 discriminator 1
	cmp	w3, w8
	beq	.L37
.L40:
	.loc 1 66 0
	cbz	w4, .L46
	.loc 1 65 0
	mov	x5, x1
	.loc 1 68 0
	add	x0, x0, 1
	.loc 1 59 0
	cmp	x5, x2
	.loc 1 68 0
	mov	x7, x0
	.loc 1 59 0
	bne	.L50
.L48:
	.loc 1 71 0
	ret
.LVL14:
.L37:
	.loc 1 62 0
	add	x5, x5, 1
	.loc 1 63 0
	add	x7, x7, 1
	b	.L35
.LVL15:
.L49:
.LBB259:
.LBB256:
	.loc 2 40 0
	ldrb	w6, [x9,w4,sxtw]
.LBE256:
.LBE259:
.LBB260:
.LBB250:
	.loc 2 41 0
	add	w3, w3, 32
.LVL16:
.LBE250:
.LBE260:
.LBB261:
.LBB257:
	.loc 2 40 0
	mov	w8, w4
.LBE257:
.LBE261:
.LBB262:
.LBB251:
	.loc 2 41 0
	uxtb	w3, w3
.LVL17:
.LBE251:
.LBE262:
.LBB263:
.LBB258:
	.loc 2 40 0
	tbz	x6, 0, .L39
	b	.L42
.L46:
.LBE258:
.LBE263:
	.loc 1 67 0
	mov	x0, 0
	.loc 1 71 0
	ret
	.cfi_endproc
.LFE1476:
	.size	strfinds2, .-strfinds2
	.align	2
	.global	substring
	.type	substring, %function
substring:
.LFB1477:
	.loc 1 74 0
	.cfi_startproc
.LVL18:
	stp	x29, x30, [sp, -80]!
	.cfi_def_cfa_offset 80
	.cfi_offset 29, -80
	.cfi_offset 30, -72
	add	x29, sp, 0
	.cfi_def_cfa_register 29
	stp	x21, x22, [sp,32]
	.cfi_offset 21, -48
	.cfi_offset 22, -40
	mov	x22, x3
	mov	x21, x0
	.loc 1 80 0
	mov	x0, x1
.LVL19:
	.loc 1 74 0
	str	x25, [sp,64]
	stp	x23, x24, [sp,48]
	stp	x19, x20, [sp,16]
	.cfi_offset 25, -16
	.cfi_offset 23, -32
	.cfi_offset 24, -24
	.cfi_offset 19, -64
	.cfi_offset 20, -56
	.loc 1 79 0
	ldr	w25, [x3]
	.loc 1 74 0
	mov	x23, x1
	mov	x24, x2
	.loc 1 80 0
	bl	strlen
.LVL20:
	.loc 1 82 0
	str	wzr, [x22]
	.loc 1 80 0
	mov	x20, x0
	.loc 1 83 0
	cbz	w0, .L56
	.loc 1 85 0
	ldrb	w0, [x24]
	cbz	w0, .L56
	.loc 1 87 0
	mov	x0, x21
	mov	x1, x23
.LVL21:
	mov	w2, w25
	bl	strfindpos
.LVL22:
	mov	x19, x0
.LVL23:
	.loc 1 88 0
	cbz	x0, .L56
	.loc 1 90 0
	add	x0, x0, x20, sxtw
	sub	x2, x21, x0
	mov	x1, x24
	add	w2, w25, w2
	bl	strfindpos
.LVL24:
	mov	x20, x0
.LVL25:
	.loc 1 91 0
	cbz	x0, .L56
	.loc 1 93 0
	mov	x0, x23
	bl	strlen
.LVL26:
	add	x0, x19, x0
.LVL27:
	.loc 1 94 0
	sub	x20, x20, x0
.LVL28:
	str	w20, [x22]
.LVL29:
	.loc 1 96 0
	ldp	x19, x20, [sp,16]
	.cfi_remember_state
	.cfi_restore 20
	.cfi_restore 19
.LVL30:
	ldp	x21, x22, [sp,32]
	.cfi_restore 22
	.cfi_restore 21
.LVL31:
	ldp	x23, x24, [sp,48]
	.cfi_restore 24
	.cfi_restore 23
.LVL32:
	ldr	x25, [sp,64]
	.cfi_restore 25
.LVL33:
	ldp	x29, x30, [sp], 80
	.cfi_restore 30
	.cfi_restore 29
	.cfi_def_cfa 31, 0
	ret
.LVL34:
.L56:
	.cfi_restore_state
	.loc 1 84 0
	mov	x0, 0
.LVL35:
	.loc 1 96 0
	ldr	x25, [sp,64]
	.cfi_restore 25
.LVL36:
	ldp	x19, x20, [sp,16]
	.cfi_restore 19
	.cfi_restore 20
.LVL37:
	ldp	x21, x22, [sp,32]
	.cfi_restore 21
	.cfi_restore 22
.LVL38:
	ldp	x23, x24, [sp,48]
	.cfi_restore 23
	.cfi_restore 24
.LVL39:
	ldp	x29, x30, [sp], 80
	.cfi_restore 29
	.cfi_restore 30
	.cfi_def_cfa 31, 0
	ret
	.cfi_endproc
.LFE1477:
	.size	substring, .-substring
	.align	2
	.global	byte_to_hex
	.type	byte_to_hex, %function
byte_to_hex:
.LFB1478:
	.loc 1 99 0
	.cfi_startproc
.LVL40:
	.loc 1 105 0
	cmp	w1, wzr
	.loc 1 99 0
	sub	sp, sp, #32
	.cfi_def_cfa_offset 32
	.loc 1 105 0
	ble	.L57
	cmp	w3, 1
	ble	.L57
	.loc 1 100 0
	adrp	x7, .LC0
	add	x8, sp, 8
	add	x7, x7, :lo12:.LC0
	sub	w10, w3, #1
	mov	w6, 1
	ldp	x4, x5, [x7]
	stp	x4, x5, [x8]
	ldrb	w5, [x7,16]
	mov	w4, 0
	strb	w5, [sp,24]
.L60:
	.loc 1 108 0
	cmp	w10, w6
	lsl	w5, w4, 1
	add	w6, w6, 2
	.loc 1 110 0
	sxtw	x7, w5
	.loc 1 108 0
	blt	.L59
	.loc 1 110 0
	ldrb	w5, [x0]
.LVL41:
	.loc 1 111 0
	add	x9, x2, x7
	.loc 1 107 0 discriminator 2
	add	w4, w4, 1
	.loc 1 110 0
	ubfx	x5, x5, 4, 4
	.loc 1 107 0 discriminator 1
	cmp	w1, w4
	.loc 1 110 0
	ldrb	w5, [x8,x5]
	strb	w5, [x2,x7]
	.loc 1 111 0
	ldrb	w5, [x0],1
	and	x5, x5, 15
	ldrb	w5, [x8,x5]
	strb	w5, [x9,1]
	.loc 1 107 0 discriminator 1
	bgt	.L60
	lsl	w5, w4, 1
.LVL42:
.L59:
	.loc 1 113 0
	cmp	w3, w5
	blt	.L61
	.loc 1 114 0
	strb	wzr, [x2,w5,sxtw]
.L57:
	.loc 1 118 0
	add	sp, sp, 32
	.cfi_remember_state
	.cfi_def_cfa_offset 0
	ret
.L61:
	.cfi_restore_state
	.loc 1 116 0
	sub	w4, w4, #1
	lsl	w4, w4, 1
	add	x2, x2, x4, sxtw
.LVL43:
	strb	wzr, [x2,1]
	.loc 1 118 0
	add	sp, sp, 32
	.cfi_def_cfa_offset 0
	ret
	.cfi_endproc
.LFE1478:
	.size	byte_to_hex, .-byte_to_hex
	.align	2
	.global	hex_string_to_value
	.type	hex_string_to_value, %function
hex_string_to_value:
.LFB1479:
	.loc 1 121 0
	.cfi_startproc
.LVL44:
	.loc 1 121 0
	uxtb	w1, w0
.LVL45:
	.loc 1 122 0
	sub	w0, w1, #48
	uxtb	w0, w0
	cmp	w0, 9
	bls	.L66
	.loc 1 124 0
	sub	w0, w1, #65
	uxtb	w0, w0
	cmp	w0, 5
	bls	.L69
.LBB266:
.LBB267:
	.loc 1 126 0
	sub	w2, w1, #97
	.loc 1 128 0
	mov	w0, 0
	.loc 1 126 0
	uxtb	w2, w2
	cmp	w2, 5
	bhi	.L66
	.loc 1 127 0
	sub	w1, w1, #87
.LVL46:
	uxtb	w0, w1
.LVL47:
.L66:
.LBE267:
.LBE266:
	.loc 1 129 0
	ret
.L69:
	.loc 1 125 0
	sub	w1, w1, #55
.LVL48:
	uxtb	w0, w1
	.loc 1 129 0
	ret
	.cfi_endproc
.LFE1479:
	.size	hex_string_to_value, .-hex_string_to_value
	.align	2
	.global	hex_to_byte
	.type	hex_to_byte, %function
hex_to_byte:
.LFB1480:
	.loc 1 132 0
	.cfi_startproc
.LVL49:
	.loc 1 140 0 discriminator 1
	cmp	w1, 1
	.loc 1 139 0
	strb	wzr, [x2]
	.loc 1 137 0
	add	w1, w1, w1, lsr 31
.LVL50:
	asr	w6, w1, 1
	.loc 1 140 0 discriminator 1
	ble	.L70
	cmp	w6, w3
	bgt	.L70
	.loc 1 143 0 discriminator 1
	cmp	w6, wzr
	ble	.L70
	add	w6, w6, 1
	mov	w5, 2
	lsl	w6, w6, 1
	b	.L78
.LVL51:
.L82:
.LBB272:
.LBB273:
.LBB274:
.LBB275:
	.loc 1 126 0
	sub	w4, w3, #97
	.loc 1 128 0
	mov	w1, 0
	.loc 1 126 0
	uxtb	w4, w4
	cmp	w4, 5
	bhi	.L74
	.loc 1 127 0
	sub	w3, w3, #87
	uxtb	w1, w3
.L74:
.LBE275:
.LBE274:
.LBE273:
.LBE272:
	.loc 1 148 0
	ubfiz	w1, w1, 4, 4
	strb	w1, [x2]
	.loc 1 146 0
	ldrb	w4, [x0,1]
.LBB281:
.LBB278:
	.loc 1 122 0
	sub	w3, w4, #48
	uxtb	w3, w3
	cmp	w3, 9
	bls	.L76
	.loc 1 124 0
	sub	w3, w4, #65
	uxtb	w3, w3
	cmp	w3, 5
	bls	.L77
.LBB277:
.LBB276:
	.loc 1 126 0
	sub	w7, w4, #97
	.loc 1 128 0
	mov	w3, 0
	.loc 1 126 0
	uxtb	w7, w7
	cmp	w7, 5
	bhi	.L76
	.loc 1 127 0
	sub	w4, w4, #87
	uxtb	w3, w4
.L76:
	add	w5, w5, 2
.LBE276:
.LBE277:
.LBE278:
.LBE281:
	.loc 1 146 0
	add	w1, w3, w1
	.loc 1 143 0 discriminator 1
	cmp	w5, w6
	.loc 1 146 0
	strb	w1, [x2],1
	add	x0, x0, 2
	.loc 1 143 0 discriminator 1
	beq	.L70
.LVL52:
.L78:
	.loc 1 144 0
	strb	wzr, [x2]
.LVL53:
	.loc 1 146 0
	ldrb	w3, [x0]
.LVL54:
.LBB282:
.LBB279:
	.loc 1 122 0
	sub	w1, w3, #48
	uxtb	w1, w1
	cmp	w1, 9
	bls	.L74
	.loc 1 124 0
	sub	w1, w3, #65
	uxtb	w1, w1
	cmp	w1, 5
	bhi	.L82
	.loc 1 125 0
	sub	w3, w3, #55
	uxtb	w1, w3
	b	.L74
.LVL55:
.L70:
.LBE279:
.LBE282:
	.loc 1 151 0
	ret
.LVL56:
.L77:
.LBB283:
.LBB280:
	.loc 1 125 0
	sub	w4, w4, #55
	uxtb	w3, w4
	b	.L76
.LBE280:
.LBE283:
	.cfi_endproc
.LFE1480:
	.size	hex_to_byte, .-hex_to_byte
	.align	2
	.global	get_cur_time
	.type	get_cur_time, %function
get_cur_time:
.LFB1481:
	.loc 1 154 0
	.cfi_startproc
	.loc 1 155 0
	adrp	x1, jiffies
	.loc 1 157 0
	mov	x0, 62915
	movk	x0, 0x5c28, lsl 16
	movk	x0, 0xc28f, lsl 32
	.loc 1 155 0
	ldr	x1, [x1,#:lo12:jiffies]
	.loc 1 157 0
	movk	x0, 0x28f5, lsl 48
	lsl	x2, x1, 7
	sub	x2, x2, x1, lsl 2
	add	x1, x2, x1
	ubfiz	x1, x1, 1, 61
	umulh	x0, x1, x0
	.loc 1 159 0
	lsr	x0, x0, 2
	ret
	.cfi_endproc
.LFE1481:
	.size	get_cur_time, .-get_cur_time
	.align	2
	.global	right_trim
	.type	right_trim, %function
right_trim:
.LFB1482:
	.loc 1 163 0
	.cfi_startproc
.LVL57:
	stp	x29, x30, [sp, -32]!
	.cfi_def_cfa_offset 32
	.cfi_offset 29, -32
	.cfi_offset 30, -24
	add	x29, sp, 0
	.cfi_def_cfa_register 29
	str	x19, [sp,16]
	.cfi_offset 19, -16
	.loc 1 163 0
	mov	x19, x0
	.loc 1 164 0
	bl	strlen
.LVL58:
	.loc 1 165 0
	sxtw	x0, w0
	sub	x0, x0, #1
	add	x1, x19, x0
.LVL59:
	.loc 1 167 0
	cmp	x19, x1
	bhi	.L84
	.loc 1 168 0
	ldrb	w2, [x19,x0]
	sub	w0, w2, #9
	.loc 1 169 0
	and	w4, w2, -33
	.loc 1 168 0
	uxtb	w0, w0
	cmp	w0, 4
	cset	w3, ls
	.loc 1 169 0
	cmp	w4, wzr
	cset	w0, eq
	.loc 1 170 0
	orr	w0, w3, w0
	cbnz	w0, .L90
	cmp	w2, 160
	bne	.L84
.L90:
	.loc 1 171 0
	strb	wzr, [x1],-1
	.loc 1 167 0
	cmp	x19, x1
	bhi	.L84
	.loc 1 168 0
	ldrb	w2, [x1]
	sub	w0, w2, #9
	.loc 1 169 0
	and	w4, w2, -33
	.loc 1 168 0
	uxtb	w0, w0
	cmp	w0, 4
	cset	w3, ls
	.loc 1 169 0
	cmp	w4, wzr
	cset	w0, eq
	.loc 1 170 0
	cmp	w2, 160
	orr	w0, w3, w0
	cbnz	w0, .L90
	beq	.L90
.L84:
	.loc 1 176 0
	ldr	x19, [sp,16]
	.cfi_restore 19
.LVL60:
	ldp	x29, x30, [sp], 32
	.cfi_restore 30
	.cfi_restore 29
	.cfi_def_cfa 31, 0
	ret
	.cfi_endproc
.LFE1482:
	.size	right_trim, .-right_trim
	.align	2
	.global	left_trim
	.type	left_trim, %function
left_trim:
.LFB1483:
	.loc 1 180 0
	.cfi_startproc
.LVL61:
	.loc 1 183 0
	ldrb	w1, [x0]
	cbz	w1, .L92
	.loc 1 184 0
	sub	w2, w1, #9
	uxtb	w2, w2
	.loc 1 186 0
	cmp	w2, 4
	bls	.L98
	.loc 1 184 0
	and	w1, w1, 127
	.loc 1 186 0
	cmp	w1, 32
	bne	.L92
.L98:
	.loc 1 183 0
	ldrb	w1, [x0,1]!
	.loc 1 184 0
	sub	w2, w1, #9
	and	w3, w1, 127
	.loc 1 183 0
	cbz	w1, .L92
	.loc 1 184 0
	uxtb	w2, w2
	.loc 1 186 0
	cmp	w2, 4
	bls	.L98
	cmp	w3, 32
	beq	.L98
.L92:
.LVL62:
	.loc 1 192 0
	ret
	.cfi_endproc
.LFE1483:
	.size	left_trim, .-left_trim
	.align	2
	.global	get_url_path
	.type	get_url_path, %function
get_url_path:
.LFB1484:
	.loc 1 195 0
	.cfi_startproc
.LVL63:
	stp	x29, x30, [sp, -64]!
	.cfi_def_cfa_offset 64
	.cfi_offset 29, -64
	.cfi_offset 30, -56
	.loc 1 200 0
	adrp	x2, .LC2
	.loc 1 195 0
	add	x29, sp, 0
	.cfi_def_cfa_register 29
	.loc 1 196 0
	add	x3, x29, 64
	.loc 1 195 0
	str	x21, [sp,32]
	stp	x19, x20, [sp,16]
	.cfi_offset 21, -32
	.cfi_offset 19, -48
	.cfi_offset 20, -40
	.loc 1 195 0
	mov	w19, w1
	.loc 1 200 0
	adrp	x1, .LC1
.LVL64:
	add	x1, x1, :lo12:.LC1
	add	x2, x2, :lo12:.LC2
	.loc 1 196 0
	str	w19, [x3,-4]!
.LVL65:
	.loc 1 200 0
	bl	substring
.LVL66:
	mov	x20, x0
.LVL67:
	.loc 1 202 0
	ldr	w0, [x29,60]
	cbz	w0, .L105
	.loc 1 206 0
	add	w0, w0, 1
.LBB284:
.LBB285:
	.file 3 "/mnt/disk/jenkins2/ci/workspace/chipset_component_FRD_b160_Open_Source/component_code/vendor/huawei/extra/build/build_script/austin_kernel_release/kernel/include/linux/slab.h"
	.loc 3 435 0
	mov	w1, 32
	sxtw	x0, w0
	bl	__kmalloc
.LVL68:
	mov	x19, x0
.LVL69:
.LBE285:
.LBE284:
	.loc 1 207 0
	cbz	x0, .L104
	.loc 1 209 0
	ldrsw	x2, [x29,60]
	mov	x1, x20
	bl	memcpy
.LVL70:
	.loc 1 210 0
	ldrsw	x1, [x29,60]
	.loc 1 211 0
	mov	x0, x19
	.loc 1 210 0
	strb	wzr, [x19,x1]
	.loc 1 211 0
	bl	right_trim
.LVL71:
	.loc 1 212 0
	mov	x0, x19
	bl	left_trim
.LVL72:
	mov	x21, x0
.LVL73:
	.loc 1 214 0
	ldr	w0, [x29,60]
.LBB286:
.LBB287:
	.loc 3 435 0
	mov	w1, 32
.LVL74:
.LBE287:
.LBE286:
	.loc 1 214 0
	add	w0, w0, 64
.LVL75:
.LBB289:
.LBB288:
	.loc 3 435 0
	sxtw	x0, w0
	bl	__kmalloc
.LVL76:
	mov	x20, x0
.LVL77:
.LBE288:
.LBE289:
	.loc 1 215 0
	cbz	x0, .L106
	.loc 1 219 0
	ldr	w1, [x29,60]
	adrp	x2, .LC4
	add	x2, x2, :lo12:.LC4
	mov	x3, x21
.LVL78:
	add	w1, w1, 64
.LVL79:
	sxtw	x1, w1
	bl	snprintf
.LVL80:
	.loc 1 220 0
	mov	x0, x21
	bl	strlen
.LVL81:
	mov	x1, x0
	str	w0, [x29,60]
	.loc 1 222 0
	mov	x0, x19
	.loc 1 221 0
	strb	wzr, [x20,w1,sxtw]
	.loc 1 222 0
	bl	kfree
.LVL82:
	.loc 1 223 0
	mov	x0, x20
.LVL83:
.L102:
	.loc 1 224 0
	ldp	x19, x20, [sp,16]
	.cfi_remember_state
	.cfi_restore 20
	.cfi_restore 19
.LVL84:
	ldr	x21, [sp,32]
	.cfi_restore 21
.LVL85:
	ldp	x29, x30, [sp], 64
	.cfi_restore 30
	.cfi_restore 29
	.cfi_def_cfa 31, 0
	ret
.LVL86:
.L104:
	.cfi_restore_state
	.loc 1 208 0
	mov	x0, 0
	b	.L102
.LVL87:
.L106:
	.loc 1 216 0
	mov	x0, x19
	bl	kfree
.LVL88:
	.loc 1 217 0
	mov	x0, 0
	b	.L102
.LVL89:
.L105:
	.loc 1 203 0
	adrp	x0, .LC3
	mov	w1, 0
	add	x0, x0, :lo12:.LC3
	mov	w2, w19
	bl	printk
.LVL90:
	.loc 1 204 0
	mov	x0, 0
	b	.L102
	.cfi_endproc
.LFE1484:
	.size	get_url_path, .-get_url_path
	.align	2
	.global	get_url_form_data
	.type	get_url_form_data, %function
get_url_form_data:
.LFB1485:
	.loc 1 228 0
	.cfi_startproc
.LVL91:
	stp	x29, x30, [sp, -96]!
	.cfi_def_cfa_offset 96
	.cfi_offset 29, -96
	.cfi_offset 30, -88
	mov	w4, w1
	.loc 1 236 0
	adrp	x2, .LC2
	.loc 1 228 0
	add	x29, sp, 0
	.cfi_def_cfa_register 29
	.loc 1 236 0
	adrp	x1, .LC1
.LVL92:
	add	x2, x2, :lo12:.LC2
	add	x1, x1, :lo12:.LC1
	add	x3, x29, 88
	.loc 1 228 0
	stp	x19, x20, [sp,16]
	str	x23, [sp,48]
	.cfi_offset 19, -80
	.cfi_offset 20, -72
	.cfi_offset 23, -48
	mov	x19, x0
	.loc 1 229 0
	str	w4, [x29,88]
.LVL93:
	.loc 1 230 0
	str	w4, [x29,92]
.LVL94:
	.loc 1 228 0
	stp	x21, x22, [sp,32]
	.cfi_offset 21, -64
	.cfi_offset 22, -56
	.loc 1 236 0
	bl	substring
.LVL95:
	mov	x20, x0
.LVL96:
	.loc 1 237 0
	adrp	x1, .LC5
	adrp	x2, .LC6
	mov	x0, x19
	add	x1, x1, :lo12:.LC5
	add	x2, x2, :lo12:.LC6
	add	x3, x29, 92
	bl	substring
.LVL97:
	.loc 1 239 0
	ldr	w19, [x29,88]
.LVL98:
	.loc 1 237 0
	mov	x23, x0
.LVL99:
	.loc 1 239 0
	cbz	w19, .L108
	.loc 1 239 0 is_stmt 0 discriminator 1
	ldr	w0, [x29,92]
.LVL100:
	cbz	w0, .L108
	.loc 1 243 0 is_stmt 1
	adrp	x1, .LC7
	mov	x0, x20
	add	x1, x1, :lo12:.LC7
	mov	w2, 10
	bl	strfindpos
.LVL101:
	cbz	x0, .L112
.LBB290:
	.loc 1 244 0
	mov	x0, x20
	bl	left_trim
.LVL102:
	.loc 1 245 0
	sub	x21, x20, x0
	add	w21, w19, w21
.LVL103:
	.loc 1 244 0
	mov	x22, x0
.LVL104:
	.loc 1 247 0
	cmp	w21, wzr
	ble	.L112
	.loc 1 248 0
	add	w2, w21, 1
.LBB291:
.LBB292:
	.loc 3 435 0
	mov	w1, 32
.LBE292:
.LBE291:
	.loc 1 248 0
	sxtw	x2, w2
.LBB294:
.LBB293:
	.loc 3 435 0
	str	x2, [x29,72]
	mov	x0, x2
	bl	__kmalloc
.LVL105:
	mov	x19, x0
.LBE293:
.LBE294:
	.loc 1 249 0
	cbz	x0, .L123
	.loc 1 251 0
	ldr	x2, [x29,72]
	mov	w1, 0
	bl	memset
.LVL106:
	.loc 1 252 0
	mov	x0, x19
	mov	x1, x22
	sxtw	x2, w21
	bl	memcpy
.LVL107:
	.loc 1 253 0
	mov	x0, x19
.L121:
.LBE290:
	.loc 1 283 0
	ldp	x19, x20, [sp,16]
	.cfi_remember_state
	.cfi_restore 20
	.cfi_restore 19
.LVL108:
	ldp	x21, x22, [sp,32]
	.cfi_restore 22
	.cfi_restore 21
.LVL109:
	ldr	x23, [sp,48]
	.cfi_restore 23
.LVL110:
	ldp	x29, x30, [sp], 96
	.cfi_restore 30
	.cfi_restore 29
	.cfi_def_cfa 31, 0
	ret
.LVL111:
.L112:
	.cfi_restore_state
	.loc 1 256 0
	add	w0, w19, 1
.LBB295:
.LBB296:
	.loc 3 435 0
	mov	w1, 32
.LBE296:
.LBE295:
	.loc 1 256 0
	sxtw	x0, w0
.LBB298:
.LBB297:
	.loc 3 435 0
	bl	__kmalloc
.LVL112:
	mov	x22, x0
.LVL113:
.LBE297:
.LBE298:
	.loc 1 257 0
	cbz	x0, .L123
	.loc 1 259 0
	ldr	w0, [x29,92]
.LBB299:
.LBB300:
	.loc 3 435 0
	mov	w1, 32
.LBE300:
.LBE299:
	.loc 1 259 0
	add	w0, w0, 1
.LVL114:
.LBB302:
.LBB301:
	.loc 3 435 0
	sxtw	x0, w0
	bl	__kmalloc
.LVL115:
	mov	x21, x0
.LVL116:
.LBE301:
.LBE302:
	.loc 1 260 0
	cbz	x0, .L122
	.loc 1 264 0
	ldrsw	x2, [x29,88]
	mov	x1, x20
	mov	x0, x22
	bl	memcpy
.LVL117:
	.loc 1 265 0
	ldrsw	x2, [x29,88]
	.loc 1 266 0
	mov	x1, x23
	mov	x0, x21
	.loc 1 265 0
	strb	wzr, [x22,x2]
	.loc 1 266 0
	ldrsw	x2, [x29,92]
	bl	memcpy
.LVL118:
	.loc 1 267 0
	ldrsw	x1, [x29,92]
	.loc 1 268 0
	mov	x0, x22
	.loc 1 267 0
	strb	wzr, [x21,x1]
	.loc 1 268 0
	bl	right_trim
.LVL119:
	.loc 1 269 0
	mov	x0, x22
	bl	left_trim
.LVL120:
	str	x0, [x29,64]
	.loc 1 271 0
	mov	x0, x21
.LVL121:
	bl	right_trim
.LVL122:
	.loc 1 272 0
	mov	x0, x21
	bl	left_trim
.LVL123:
	str	x0, [x29,72]
	.loc 1 273 0
	ldr	w2, [x29,88]
.LBB303:
.LBB304:
	.loc 3 435 0
	mov	w1, 32
.LBE304:
.LBE303:
	.loc 1 273 0
	ldr	w0, [x29,92]
.LVL124:
	add	w0, w2, w0
.LVL125:
	add	w0, w0, 64
.LBB306:
.LBB305:
	.loc 3 435 0
	sxtw	x0, w0
	bl	__kmalloc
.LVL126:
	mov	x19, x0
.LBE305:
.LBE306:
	.loc 1 274 0
	ldr	x3, [x29,72]
.LVL127:
	ldr	x4, [x29,64]
.LVL128:
	cbz	x0, .L124
	.loc 1 279 0
	ldr	w5, [x29,88]
	adrp	x2, .LC8
	ldr	w1, [x29,92]
	add	x2, x2, :lo12:.LC8
.LVL129:
	add	w1, w5, w1
.LVL130:
	add	w1, w1, 64
	sxtw	x1, w1
	bl	snprintf
.LVL131:
	.loc 1 280 0
	mov	x0, x21
	bl	kfree
.LVL132:
	.loc 1 281 0
	mov	x0, x22
	bl	kfree
.LVL133:
	.loc 1 283 0
	ldr	x23, [sp,48]
	.cfi_remember_state
	.cfi_restore 23
.LVL134:
	.loc 1 282 0
	mov	x0, x19
	.loc 1 283 0
	ldp	x19, x20, [sp,16]
	.cfi_restore 19
	.cfi_restore 20
.LVL135:
	ldp	x21, x22, [sp,32]
	.cfi_restore 21
	.cfi_restore 22
	ldp	x29, x30, [sp], 96
	.cfi_restore 29
	.cfi_restore 30
	.cfi_def_cfa 31, 0
	ret
.LVL136:
.L124:
	.cfi_restore_state
	.loc 1 275 0
	mov	x0, x21
	bl	kfree
.LVL137:
.L122:
	.loc 1 276 0
	mov	x0, x22
	bl	kfree
.LVL138:
.L123:
	.loc 1 277 0
	mov	x0, 0
	b	.L121
.LVL139:
.L108:
	.loc 1 240 0
	ldr	w2, [x29,92]
	adrp	x0, .LC3
	add	x0, x0, :lo12:.LC3
	mov	w1, w19
	bl	printk
.LVL140:
	.loc 1 241 0
	mov	x0, 0
	b	.L121
	.cfi_endproc
.LFE1485:
	.size	get_url_form_data, .-get_url_form_data
	.align	2
	.global	get_hash_id
	.type	get_hash_id, %function
get_hash_id:
.LFB1486:
	.loc 1 286 0
	.cfi_startproc
.LVL141:
.LBB307:
.LBB308:
.LBB309:
	.file 4 "/mnt/disk/jenkins2/ci/workspace/chipset_component_FRD_b160_Open_Source/component_code/vendor/huawei/extra/build/build_script/austin_kernel_release/kernel/include/linux/jhash.h"
	.loc 4 151 0
	mov	w2, 49896
	.loc 4 155 0
	mov	w1, 51285
	.loc 4 151 0
	movk	w2, 0xdead, lsl 16
	.loc 4 155 0
	movk	w1, 0x8f45, lsl 16
	.loc 4 151 0
	add	w0, w0, w2
.LVL142:
	.loc 4 155 0
	mov	w3, 21382
	eor	w2, w0, w1
	movk	w3, 0xd1bd, lsl 16
	mov	w1, 49896
	add	w2, w2, w3
	movk	w1, 0xdead, lsl 16
.LBB310:
.LBB311:
	.file 5 "/mnt/disk/jenkins2/ci/workspace/chipset_component_FRD_b160_Open_Source/component_code/vendor/huawei/extra/build/build_script/austin_kernel_release/kernel/include/linux/bitops.h"
	.loc 5 110 0
	ror	w3, w2, 7
.LBE311:
.LBE310:
	.loc 4 155 0
	eor	w1, w2, w1
	mov	w0, 51285
	sub	w1, w1, w3
	movk	w0, 0x8f45, lsl 16
.LBB312:
.LBB313:
	.loc 5 110 0
	ror	w3, w1, 16
.LBE313:
.LBE312:
	.loc 4 155 0
	eor	w0, w1, w0
	sub	w0, w0, w3
.LBB314:
.LBB315:
	.loc 5 110 0
	ror	w3, w0, 28
.LBE315:
.LBE314:
	.loc 4 155 0
	eor	w2, w0, w2
	sub	w2, w2, w3
	eor	w1, w2, w1
.LBB316:
.LBB317:
	.loc 5 110 0
	ror	w2, w2, 18
.LBE317:
.LBE316:
	.loc 4 155 0
	sub	w1, w1, w2
	eor	w0, w1, w0
.LBB318:
.LBB319:
	.loc 5 110 0
	ror	w1, w1, 8
.LBE319:
.LBE318:
	.loc 4 155 0
	sub	w0, w0, w1
.LBE309:
.LBE308:
.LBE307:
	.loc 1 291 0
	uxtb	w0, w0
	ret
	.cfi_endproc
.LFE1486:
	.size	get_hash_id, .-get_hash_id
	.section	.rodata.str1.8,"aMS",%progbits,1
	.align	3
.LC0:
	.string	"0123456789ABCDEF"
	.zero	7
.LC1:
	.string	" "
	.zero	6
.LC2:
	.string	" HTTP"
	.zero	2
.LC3:
	.string	"\0016\nhwad:upath ul=%d hl=%d\n"
	.zero	5
.LC4:
	.string	"%s"
	.zero	5
.LC5:
	.string	"Host:"
	.zero	2
.LC6:
	.string	"\n"
	.zero	6
.LC7:
	.string	"http://"
.LC8:
	.string	"http://%s%s"
	.text
.Letext0:
	.file 6 "/mnt/disk/jenkins2/ci/workspace/chipset_component_FRD_b160_Open_Source/component_code/vendor/huawei/extra/build/build_script/austin_kernel_release/kernel/include/uapi/asm-generic/int-ll64.h"
	.file 7 "/mnt/disk/jenkins2/ci/workspace/chipset_component_FRD_b160_Open_Source/component_code/vendor/huawei/extra/build/build_script/austin_kernel_release/kernel/include/asm-generic/int-ll64.h"
	.file 8 "/mnt/disk/jenkins2/ci/workspace/chipset_component_FRD_b160_Open_Source/component_code/vendor/huawei/extra/build/build_script/austin_kernel_release/kernel/include/uapi/asm-generic/posix_types.h"
	.file 9 "/mnt/disk/jenkins2/ci/workspace/chipset_component_FRD_b160_Open_Source/component_code/vendor/huawei/extra/build/build_script/austin_kernel_release/kernel/include/linux/types.h"
	.file 10 "/mnt/disk/jenkins2/ci/workspace/chipset_component_FRD_b160_Open_Source/component_code/vendor/huawei/extra/build/build_script/austin_kernel_release/kernel/include/linux/capability.h"
	.file 11 "/mnt/disk/jenkins2/ci/workspace/chipset_component_FRD_b160_Open_Source/component_code/vendor/huawei/extra/build/build_script/austin_kernel_release/kernel/include/linux/thread_info.h"
	.file 12 "/mnt/disk/jenkins2/ci/workspace/chipset_component_FRD_b160_Open_Source/component_code/vendor/huawei/extra/build/build_script/austin_kernel_release/kernel/include/uapi/linux/time.h"
	.file 13 "/mnt/disk/jenkins2/ci/workspace/chipset_component_FRD_b160_Open_Source/component_code/vendor/huawei/extra/build/build_script/austin_kernel_release/kernel/arch/arm64/include/asm/compat.h"
	.file 14 "/mnt/disk/jenkins2/ci/workspace/chipset_component_FRD_b160_Open_Source/component_code/vendor/huawei/extra/build/build_script/austin_kernel_release/kernel/include/linux/sched.h"
	.file 15 "/mnt/disk/jenkins2/ci/workspace/chipset_component_FRD_b160_Open_Source/component_code/vendor/huawei/extra/build/build_script/austin_kernel_release/kernel/arch/arm64/include/uapi/asm/ptrace.h"
	.file 16 "/mnt/disk/jenkins2/ci/workspace/chipset_component_FRD_b160_Open_Source/component_code/vendor/huawei/extra/build/build_script/austin_kernel_release/kernel/arch/arm64/include/asm/spinlock_types.h"
	.file 17 "/mnt/disk/jenkins2/ci/workspace/chipset_component_FRD_b160_Open_Source/component_code/vendor/huawei/extra/build/build_script/austin_kernel_release/kernel/include/linux/spinlock_types.h"
	.file 18 "/mnt/disk/jenkins2/ci/workspace/chipset_component_FRD_b160_Open_Source/component_code/vendor/huawei/extra/build/build_script/austin_kernel_release/kernel/arch/arm64/include/asm/fpsimd.h"
	.file 19 "/mnt/disk/jenkins2/ci/workspace/chipset_component_FRD_b160_Open_Source/component_code/vendor/huawei/extra/build/build_script/austin_kernel_release/kernel/arch/arm64/include/asm/processor.h"
	.file 20 "/mnt/disk/jenkins2/ci/workspace/chipset_component_FRD_b160_Open_Source/component_code/vendor/huawei/extra/build/build_script/austin_kernel_release/kernel/include/asm-generic/atomic-long.h"
	.file 21 "/mnt/disk/jenkins2/ci/workspace/chipset_component_FRD_b160_Open_Source/component_code/vendor/huawei/extra/build/build_script/austin_kernel_release/kernel/include/linux/seqlock.h"
	.file 22 "/mnt/disk/jenkins2/ci/workspace/chipset_component_FRD_b160_Open_Source/component_code/vendor/huawei/extra/build/build_script/austin_kernel_release/kernel/include/linux/plist.h"
	.file 23 "/mnt/disk/jenkins2/ci/workspace/chipset_component_FRD_b160_Open_Source/component_code/vendor/huawei/extra/build/build_script/austin_kernel_release/kernel/include/linux/rbtree.h"
	.file 24 "/mnt/disk/jenkins2/ci/workspace/chipset_component_FRD_b160_Open_Source/component_code/vendor/huawei/extra/build/build_script/austin_kernel_release/kernel/include/linux/cpumask.h"
	.file 25 "/mnt/disk/jenkins2/ci/workspace/chipset_component_FRD_b160_Open_Source/component_code/vendor/huawei/extra/build/build_script/austin_kernel_release/kernel/include/linux/nodemask.h"
	.file 26 "/mnt/disk/jenkins2/ci/workspace/chipset_component_FRD_b160_Open_Source/component_code/vendor/huawei/extra/build/build_script/austin_kernel_release/kernel/include/linux/osq_lock.h"
	.file 27 "/mnt/disk/jenkins2/ci/workspace/chipset_component_FRD_b160_Open_Source/component_code/vendor/huawei/extra/build/build_script/austin_kernel_release/kernel/include/linux/rwsem.h"
	.file 28 "/mnt/disk/jenkins2/ci/workspace/chipset_component_FRD_b160_Open_Source/component_code/vendor/huawei/extra/build/build_script/austin_kernel_release/kernel/include/linux/wait.h"
	.file 29 "/mnt/disk/jenkins2/ci/workspace/chipset_component_FRD_b160_Open_Source/component_code/vendor/huawei/extra/build/build_script/austin_kernel_release/kernel/include/linux/completion.h"
	.file 30 "/mnt/disk/jenkins2/ci/workspace/chipset_component_FRD_b160_Open_Source/component_code/vendor/huawei/extra/build/build_script/austin_kernel_release/kernel/include/linux/mm_types.h"
	.file 31 "/mnt/disk/jenkins2/ci/workspace/chipset_component_FRD_b160_Open_Source/component_code/vendor/huawei/extra/build/build_script/austin_kernel_release/kernel/arch/arm64/include/asm/pgtable-types.h"
	.file 32 "/mnt/disk/jenkins2/ci/workspace/chipset_component_FRD_b160_Open_Source/component_code/vendor/huawei/extra/build/build_script/austin_kernel_release/kernel/arch/arm64/include/asm/mmu.h"
	.file 33 "/mnt/disk/jenkins2/ci/workspace/chipset_component_FRD_b160_Open_Source/component_code/vendor/huawei/extra/build/build_script/austin_kernel_release/kernel/include/linux/mm.h"
	.file 34 "/mnt/disk/jenkins2/ci/workspace/chipset_component_FRD_b160_Open_Source/component_code/vendor/huawei/extra/build/build_script/austin_kernel_release/kernel/include/asm-generic/cputime_jiffies.h"
	.file 35 "/mnt/disk/jenkins2/ci/workspace/chipset_component_FRD_b160_Open_Source/component_code/vendor/huawei/extra/build/build_script/austin_kernel_release/kernel/include/linux/llist.h"
	.file 36 "/mnt/disk/jenkins2/ci/workspace/chipset_component_FRD_b160_Open_Source/component_code/vendor/huawei/extra/build/build_script/austin_kernel_release/kernel/include/linux/uidgid.h"
	.file 37 "/mnt/disk/jenkins2/ci/workspace/chipset_component_FRD_b160_Open_Source/component_code/vendor/huawei/extra/build/build_script/austin_kernel_release/kernel/include/linux/sem.h"
	.file 38 "/mnt/disk/jenkins2/ci/workspace/chipset_component_FRD_b160_Open_Source/component_code/vendor/huawei/extra/build/build_script/austin_kernel_release/kernel/include/linux/shm.h"
	.file 39 "/mnt/disk/jenkins2/ci/workspace/chipset_component_FRD_b160_Open_Source/component_code/vendor/huawei/extra/build/build_script/austin_kernel_release/kernel/include/uapi/asm-generic/signal.h"
	.file 40 "/mnt/disk/jenkins2/ci/workspace/chipset_component_FRD_b160_Open_Source/component_code/vendor/huawei/extra/build/build_script/austin_kernel_release/kernel/include/uapi/asm-generic/signal-defs.h"
	.file 41 "/mnt/disk/jenkins2/ci/workspace/chipset_component_FRD_b160_Open_Source/component_code/vendor/huawei/extra/build/build_script/austin_kernel_release/kernel/include/uapi/asm-generic/siginfo.h"
	.file 42 "/mnt/disk/jenkins2/ci/workspace/chipset_component_FRD_b160_Open_Source/component_code/vendor/huawei/extra/build/build_script/austin_kernel_release/kernel/include/linux/signal.h"
	.file 43 "/mnt/disk/jenkins2/ci/workspace/chipset_component_FRD_b160_Open_Source/component_code/vendor/huawei/extra/build/build_script/austin_kernel_release/kernel/include/linux/pid.h"
	.file 44 "/mnt/disk/jenkins2/ci/workspace/chipset_component_FRD_b160_Open_Source/component_code/vendor/huawei/extra/build/build_script/austin_kernel_release/kernel/include/linux/pid_namespace.h"
	.file 45 "/mnt/disk/jenkins2/ci/workspace/chipset_component_FRD_b160_Open_Source/component_code/vendor/huawei/extra/build/build_script/austin_kernel_release/kernel/include/linux/mmzone.h"
	.file 46 "/mnt/disk/jenkins2/ci/workspace/chipset_component_FRD_b160_Open_Source/component_code/vendor/huawei/extra/build/build_script/austin_kernel_release/kernel/include/linux/mutex.h"
	.file 47 "/mnt/disk/jenkins2/ci/workspace/chipset_component_FRD_b160_Open_Source/component_code/vendor/huawei/extra/build/build_script/austin_kernel_release/kernel/include/linux/ktime.h"
	.file 48 "/mnt/disk/jenkins2/ci/workspace/chipset_component_FRD_b160_Open_Source/component_code/vendor/huawei/extra/build/build_script/austin_kernel_release/kernel/include/linux/workqueue.h"
	.file 49 "/mnt/disk/jenkins2/ci/workspace/chipset_component_FRD_b160_Open_Source/component_code/vendor/huawei/extra/build/build_script/austin_kernel_release/kernel/include/linux/seccomp.h"
	.file 50 "/mnt/disk/jenkins2/ci/workspace/chipset_component_FRD_b160_Open_Source/component_code/vendor/huawei/extra/build/build_script/austin_kernel_release/kernel/include/uapi/linux/resource.h"
	.file 51 "/mnt/disk/jenkins2/ci/workspace/chipset_component_FRD_b160_Open_Source/component_code/vendor/huawei/extra/build/build_script/austin_kernel_release/kernel/include/linux/timerqueue.h"
	.file 52 "/mnt/disk/jenkins2/ci/workspace/chipset_component_FRD_b160_Open_Source/component_code/vendor/huawei/extra/build/build_script/austin_kernel_release/kernel/include/linux/timer.h"
	.file 53 "/mnt/disk/jenkins2/ci/workspace/chipset_component_FRD_b160_Open_Source/component_code/vendor/huawei/extra/build/build_script/austin_kernel_release/kernel/include/linux/hrtimer.h"
	.file 54 "/mnt/disk/jenkins2/ci/workspace/chipset_component_FRD_b160_Open_Source/component_code/vendor/huawei/extra/build/build_script/austin_kernel_release/kernel/include/linux/task_io_accounting.h"
	.file 55 "/mnt/disk/jenkins2/ci/workspace/chipset_component_FRD_b160_Open_Source/component_code/vendor/huawei/extra/build/build_script/austin_kernel_release/kernel/include/linux/nsproxy.h"
	.file 56 "/mnt/disk/jenkins2/ci/workspace/chipset_component_FRD_b160_Open_Source/component_code/vendor/huawei/extra/build/build_script/austin_kernel_release/kernel/include/linux/assoc_array.h"
	.file 57 "/mnt/disk/jenkins2/ci/workspace/chipset_component_FRD_b160_Open_Source/component_code/vendor/huawei/extra/build/build_script/austin_kernel_release/kernel/include/linux/key.h"
	.file 58 "/mnt/disk/jenkins2/ci/workspace/chipset_component_FRD_b160_Open_Source/component_code/vendor/huawei/extra/build/build_script/austin_kernel_release/kernel/include/linux/cred.h"
	.file 59 "/mnt/disk/jenkins2/ci/workspace/chipset_component_FRD_b160_Open_Source/component_code/vendor/huawei/extra/build/build_script/austin_kernel_release/kernel/include/linux/vmstat.h"
	.file 60 "/mnt/disk/jenkins2/ci/workspace/chipset_component_FRD_b160_Open_Source/component_code/vendor/huawei/extra/build/build_script/austin_kernel_release/kernel/include/linux/kref.h"
	.file 61 "/mnt/disk/jenkins2/ci/workspace/chipset_component_FRD_b160_Open_Source/component_code/vendor/huawei/extra/build/build_script/austin_kernel_release/kernel/include/linux/ns_common.h"
	.file 62 "/mnt/disk/jenkins2/ci/workspace/chipset_component_FRD_b160_Open_Source/component_code/vendor/huawei/extra/build/build_script/austin_kernel_release/kernel/include/asm-generic/bitops/builtin-__fls.h"
	.file 63 "/mnt/disk/jenkins2/ci/workspace/chipset_component_FRD_b160_Open_Source/component_code/vendor/huawei/extra/build/build_script/austin_kernel_release/kernel/include/asm-generic/bitops/fls64.h"
	.file 64 "/mnt/disk/jenkins2/ci/workspace/chipset_component_FRD_b160_Open_Source/component_code/vendor/huawei/extra/build/build_script/austin_kernel_release/kernel/include/linux/log2.h"
	.file 65 "/mnt/disk/jenkins2/ci/workspace/chipset_component_FRD_b160_Open_Source/component_code/vendor/huawei/extra/build/build_script/austin_kernel_release/kernel/include/asm-generic/getorder.h"
	.file 66 "/mnt/disk/jenkins2/ci/workspace/chipset_component_FRD_b160_Open_Source/component_code/vendor/huawei/extra/build/build_script/austin_kernel_release/kernel/arch/arm64/include/asm/cachetype.h"
	.file 67 "/mnt/disk/jenkins2/ci/workspace/chipset_component_FRD_b160_Open_Source/component_code/vendor/huawei/extra/build/build_script/austin_kernel_release/kernel/include/linux/printk.h"
	.file 68 "/mnt/disk/jenkins2/ci/workspace/chipset_component_FRD_b160_Open_Source/component_code/vendor/huawei/extra/build/build_script/austin_kernel_release/kernel/include/linux/kernel.h"
	.file 69 "/mnt/disk/jenkins2/ci/workspace/chipset_component_FRD_b160_Open_Source/component_code/vendor/huawei/extra/build/build_script/austin_kernel_release/kernel/arch/arm64/include/asm/thread_info.h"
	.file 70 "/mnt/disk/jenkins2/ci/workspace/chipset_component_FRD_b160_Open_Source/component_code/vendor/huawei/extra/build/build_script/austin_kernel_release/kernel/include/linux/jiffies.h"
	.file 71 "/mnt/disk/jenkins2/ci/workspace/chipset_component_FRD_b160_Open_Source/component_code/vendor/huawei/extra/build/build_script/austin_kernel_release/kernel/arch/arm64/include/asm/memory.h"
	.file 72 "/mnt/disk/jenkins2/ci/workspace/chipset_component_FRD_b160_Open_Source/component_code/vendor/huawei/extra/build/build_script/austin_kernel_release/kernel/include/linux/highuid.h"
	.file 73 "/mnt/disk/jenkins2/ci/workspace/chipset_component_FRD_b160_Open_Source/component_code/vendor/huawei/extra/build/build_script/austin_kernel_release/kernel/include/asm-generic/percpu.h"
	.file 74 "/mnt/disk/jenkins2/ci/workspace/chipset_component_FRD_b160_Open_Source/component_code/vendor/huawei/extra/build/build_script/austin_kernel_release/kernel/include/linux/percpu_counter.h"
	.file 75 "/mnt/disk/jenkins2/ci/workspace/chipset_component_FRD_b160_Open_Source/component_code/vendor/huawei/extra/build/build_script/austin_kernel_release/kernel/include/linux/debug_locks.h"
	.file 76 "/mnt/disk/jenkins2/ci/workspace/chipset_component_FRD_b160_Open_Source/component_code/vendor/huawei/extra/build/build_script/austin_kernel_release/kernel/include/asm-generic/pgtable.h"
	.file 77 "/mnt/disk/jenkins2/ci/workspace/chipset_component_FRD_b160_Open_Source/component_code/vendor/huawei/extra/build/build_script/austin_kernel_release/kernel/include/linux/jump_label.h"
	.file 78 "/mnt/disk/jenkins2/ci/workspace/chipset_component_FRD_b160_Open_Source/component_code/vendor/huawei/extra/build/build_script/austin_kernel_release/kernel/arch/arm64/include/asm/string.h"
	.file 79 "/mnt/disk/jenkins2/ci/workspace/chipset_component_FRD_b160_Open_Source/component_code/vendor/huawei/extra/build/build_script/austin_kernel_release/kernel/include/linux/uprobes.h"
	.section	.note.GNU-stack,"",%progbits
