	.cpu generic+fp+simd
	.file	"nf_hw_hook.c"
	.text
.Ltext0:
	.cfi_sections	.debug_frame
#APP
	.irp	num,0,1,2,3,4,5,6,7,8,9,10,11,12,13,14,15,16,17,18,19,20,21,22,23,24,25,26,27,28,29,30
	.equ	__reg_num_x\num, \num
	.endr
	.equ	__reg_num_xzr, 31

	.macro	mrs_s, rt, sreg
	.inst	0xd5200000|(\sreg)|(__reg_num_\rt)
	.endm

	.macro	msr_s, sreg, rt
	.inst	0xd5000000|(\sreg)|(__reg_num_\rt)
	.endm

#NO_APP
	.section	.exit.text,"ax",%progbits
	.align	2
	.type	nf_exit, %function
nf_exit:
.LFB3058:
	.file 1 "/mnt/disk/jenkins2/ci/workspace/chipset_component_FRD_b160_Open_Source/component_code/vendor/huawei/extra/build/build_script/austin_kernel_release/kernel/drivers/huawei_platform/net/hw_netfilter/nf_hw_hook.c"
	.loc 1 370 0
	.cfi_startproc
	stp	x29, x30, [sp, -16]!
	.cfi_def_cfa_offset 16
	.cfi_offset 29, -16
	.cfi_offset 30, -8
	add	x29, sp, 0
	.cfi_def_cfa_register 29
	.loc 1 371 0
	bl	uninit_ad
.LVL0:
	.loc 1 372 0
	bl	uninit_appdl
.LVL1:
	.loc 1 373 0
	adrp	x0, .LANCHOR0
	mov	w1, 1
	add	x0, x0, :lo12:.LANCHOR0
	bl	nf_unregister_hooks
.LVL2:
	.loc 1 374 0
	ldp	x29, x30, [sp], 16
	.cfi_restore 30
	.cfi_restore 29
	.cfi_def_cfa 31, 0
	ret
	.cfi_endproc
.LFE3058:
	.size	nf_exit, .-nf_exit
	.section	.init.text,"ax",%progbits
	.align	2
	.type	nf_init, %function
nf_init:
.LFB3057:
	.loc 1 353 0
	.cfi_startproc
	stp	x29, x30, [sp, -80]!
	.cfi_def_cfa_offset 80
	.cfi_offset 29, -80
	.cfi_offset 30, -72
	add	x29, sp, 0
	.cfi_def_cfa_register 29
	str	x19, [sp,16]
	.cfi_offset 19, -64
	.loc 1 356 0
	bl	init_appdl
.LVL3:
	.loc 1 357 0
	bl	init_ad
.LVL4:
	.loc 1 358 0
	adrp	x0, .LANCHOR0
	mov	w1, 1
	add	x0, x0, :lo12:.LANCHOR0
	bl	nf_register_hooks
.LVL5:
	.loc 1 359 0
	cbz	w0, .L3
	.loc 1 360 0
	mov	w1, w0
	adrp	x0, .LC0
.LVL6:
	add	x0, x0, :lo12:.LC0
	bl	printk
.LVL7:
	.loc 1 361 0
	mov	w0, -1
	b	.L4
.LVL8:
.L3:
.LBB133:
.LBB134:
.LBB135:
.LBB136:
	.file 2 "/mnt/disk/jenkins2/ci/workspace/chipset_component_FRD_b160_Open_Source/component_code/vendor/huawei/extra/build/build_script/austin_kernel_release/kernel/include/linux/netlink.h"
	.loc 2 60 0
	adrp	x0, init_net
.LVL9:
.LBE136:
.LBE135:
	.loc 1 154 0
	adrp	x4, kernel_hw_receive
.LBB140:
.LBB137:
	.loc 2 60 0
	mov	w1, 32
.LBE137:
.LBE140:
	.loc 1 154 0
	add	x4, x4, :lo12:kernel_hw_receive
.LBB141:
.LBB138:
	.loc 2 60 0
	add	x0, x0, :lo12:init_net
	mov	x2, 0
	add	x3, x29, 32
.LBE138:
.LBE141:
	.loc 1 154 0
	stp	xzr, xzr, [x29,32]
	str	x4, [x29,40]
	stp	xzr, xzr, [x29,48]
	stp	xzr, xzr, [x29,64]
.LBB142:
.LBB139:
	.loc 2 60 0
	bl	__netlink_kernel_create
.LVL10:
.LBE139:
.LBE142:
	.loc 1 157 0
	adrp	x1, .LANCHOR1
	mov	x19, x1
	str	x0, [x1,#:lo12:.LANCHOR1]
	.loc 1 158 0
	cbnz	x0, .L5
	.loc 1 159 0
	adrp	x0, .LC1
	add	x0, x0, :lo12:.LC1
	bl	printk
.LVL11:
.L5:
.LBE134:
.LBE133:
.LBB143:
	.loc 1 364 0 discriminator 1
	add	x2, x19, :lo12:.LANCHOR1
	adrp	x1, .LC2
	add	x0, x2, 8
	add	x1, x1, :lo12:.LC2
	add	x2, x2, 32
	bl	__raw_spin_lock_init
.LVL12:
.LBE143:
	.loc 1 365 0
	adrp	x0, .LC3
	add	x0, x0, :lo12:.LC3
	bl	printk
.LVL13:
	.loc 1 366 0
	mov	w0, 0
.L4:
	.loc 1 367 0
	ldr	x19, [sp,16]
	.cfi_restore 19
	ldp	x29, x30, [sp], 80
	.cfi_restore 30
	.cfi_restore 29
	.cfi_def_cfa 31, 0
	ret
	.cfi_endproc
.LFE3057:
	.size	nf_init, .-nf_init
	.text
	.align	2
	.type	notify_event.constprop.6, %function
notify_event.constprop.6:
.LFB3065:
	.loc 1 112 0
	.cfi_startproc
.LVL14:
	stp	x29, x30, [sp, -80]!
	.cfi_def_cfa_offset 80
	.cfi_offset 29, -80
	.cfi_offset 30, -72
	add	x29, sp, 0
	.cfi_def_cfa_register 29
	stp	x23, x24, [sp,48]
	.cfi_offset 23, -32
	.cfi_offset 24, -24
	mov	w24, w0
	.loc 1 119 0
	mov	x0, x1
.LVL15:
	.loc 1 112 0
	stp	x25, x26, [sp,64]
	stp	x19, x20, [sp,16]
	stp	x21, x22, [sp,32]
	.cfi_offset 25, -16
	.cfi_offset 26, -8
	.cfi_offset 19, -64
	.cfi_offset 20, -56
	.cfi_offset 21, -48
	.cfi_offset 22, -40
	.loc 1 112 0
	mov	x25, x1
	.loc 1 119 0
	bl	strlen
.LVL16:
	mov	x23, x0
	.loc 1 121 0
	cbz	w24, .L8
	.loc 1 121 0 is_stmt 0 discriminator 1
	adrp	x21, .LANCHOR1
	add	x0, x21, :lo12:.LANCHOR1
	ldr	x1, [x21,#:lo12:.LANCHOR1]
	cbz	x1, .L8
	.loc 1 121 0 discriminator 2
	ldr	w0, [x0,32]
	cbz	w0, .L8
.LBB144:
.LBB145:
.LBB146:
.LBB147:
	.file 3 "/mnt/disk/jenkins2/ci/workspace/chipset_component_FRD_b160_Open_Source/component_code/vendor/huawei/extra/build/build_script/austin_kernel_release/kernel/include/net/netlink.h"
	.loc 3 276 0 is_stmt 1
	add	w19, w23, 28
.LBE147:
.LBE146:
.LBB149:
.LBB150:
	.file 4 "/mnt/disk/jenkins2/ci/workspace/chipset_component_FRD_b160_Open_Source/component_code/vendor/huawei/extra/build/build_script/austin_kernel_release/kernel/include/linux/skbuff.h"
	.loc 4 626 0
	mov	w1, 32
.LBE150:
.LBE149:
.LBB153:
.LBB148:
	.loc 3 276 0
	and	w19, w19, -4
.LBE148:
.LBE153:
.LBB154:
.LBB151:
	.loc 4 626 0
	mov	w2, 0
	mov	w0, w19
	mov	w3, -1
.LBE151:
.LBE154:
.LBE145:
.LBE144:
	.loc 1 126 0
	add	w26, w23, 9
.LVL17:
.LBB157:
.LBB156:
.LBB155:
.LBB152:
	.loc 4 626 0
	bl	__alloc_skb
.LVL18:
	mov	x20, x0
.LBE152:
.LBE155:
.LBE156:
.LBE157:
	.loc 1 128 0
	cbz	x0, .L25
.LBB158:
.LBB159:
.LBB160:
.LBB161:
	.loc 4 1595 0
	ldr	w1, [x0,124]
	.loc 4 1595 0 is_stmt 0 discriminator 1
	mov	w0, 0
	.loc 4 1595 0
	cbz	w1, .L26
.L12:
.LBE161:
.LBE160:
	.loc 3 449 0 is_stmt 1
	cmp	w19, w0
	bgt	.L14
	.loc 3 452 0
	mov	x0, x20
	mov	w1, 0
	mov	w2, 0
	mov	w3, 0
	mov	w4, w26
	mov	w5, 0
	bl	__nlmsg_put
.LVL19:
	mov	x22, x0
.LBE159:
.LBE158:
	.loc 1 134 0
	cbz	x0, .L14
	.loc 1 142 0
	mov	w1, 0
	sxtw	x2, w26
	add	x0, x0, 16
.LBB165:
.LBB166:
	.file 5 "/mnt/disk/jenkins2/ci/workspace/chipset_component_FRD_b160_Open_Source/component_code/vendor/huawei/extra/build/build_script/austin_kernel_release/kernel/include/linux/spinlock.h"
	.loc 5 317 0
	add	x19, x21, :lo12:.LANCHOR1
	add	x19, x19, 8
.LBE166:
.LBE165:
	.loc 1 142 0
	bl	memset
.LVL20:
	.loc 1 143 0
	sxtw	x2, w23
	mov	x1, x25
	add	x0, x22, 20
	bl	memcpy
.LVL21:
	.loc 1 144 0
	mov	w1, 1000
.LBB169:
.LBB167:
	.loc 5 317 0
	mov	x0, x19
.LBE167:
.LBE169:
	.loc 1 144 0
	str	w1, [x22,16]
.LBB170:
.LBB168:
	.loc 5 317 0
	bl	_raw_spin_lock_bh
.LVL22:
.LBE168:
.LBE170:
	.loc 1 146 0
	ldr	x0, [x21,#:lo12:.LANCHOR1]
	mov	x1, x20
	mov	w2, w24
	mov	w3, 64
	bl	netlink_unicast
.LVL23:
	mov	w21, w0
.LVL24:
.LBB171:
.LBB172:
	.loc 5 362 0
	mov	x0, x19
	bl	_raw_spin_unlock_bh
.LVL25:
.L10:
.LBE172:
.LBE171:
	.loc 1 150 0
	mov	w0, w21
	ldp	x19, x20, [sp,16]
	.cfi_remember_state
	.cfi_restore 20
	.cfi_restore 19
	ldp	x21, x22, [sp,32]
	.cfi_restore 22
	.cfi_restore 21
.LVL26:
	ldp	x23, x24, [sp,48]
	.cfi_restore 24
	.cfi_restore 23
.LVL27:
	ldp	x25, x26, [sp,64]
	.cfi_restore 26
	.cfi_restore 25
.LVL28:
	ldp	x29, x30, [sp], 80
	.cfi_restore 30
	.cfi_restore 29
	.cfi_def_cfa 31, 0
	ret
.LVL29:
.L26:
	.cfi_restore_state
.LBB173:
.LBB164:
.LBB163:
.LBB162:
	.loc 4 1595 0 discriminator 2
	ldr	w0, [x20,196]
	ldr	w1, [x20,192]
	sub	w0, w0, w1
	b	.L12
.L14:
.LBE162:
.LBE163:
.LBE164:
.LBE173:
	.loc 1 135 0
	adrp	x0, .LC6
	.loc 1 138 0
	mov	w21, -1
.LVL30:
	.loc 1 135 0
	add	x0, x0, :lo12:.LC6
	bl	printk
.LVL31:
	.loc 1 136 0
	mov	x0, x20
	bl	kfree_skb
.LVL32:
	b	.L10
.LVL33:
.L8:
	.loc 1 122 0
	adrp	x0, .LC4
	.loc 1 123 0
	mov	w21, -1
.LVL34:
	.loc 1 122 0
	add	x0, x0, :lo12:.LC4
	bl	printk
.LVL35:
	b	.L10
.LVL36:
.L25:
	.loc 1 129 0
	adrp	x0, .LC5
	.loc 1 130 0
	mov	w21, -1
.LVL37:
	.loc 1 129 0
	add	x0, x0, :lo12:.LC5
	bl	printk
.LVL38:
	b	.L10
	.cfi_endproc
.LFE3065:
	.size	notify_event.constprop.6, .-notify_event.constprop.6
	.align	2
	.global	proc_cmd
	.type	proc_cmd, %function
proc_cmd:
.LFB3049:
	.loc 1 66 0
	.cfi_startproc
.LVL39:
	stp	x29, x30, [sp, -16]!
	.cfi_def_cfa_offset 16
	.cfi_offset 29, -16
	.cfi_offset 30, -8
	.loc 1 67 0
	cmp	w0, 3
	.loc 1 66 0
	add	x29, sp, 0
	.cfi_def_cfa_register 29
	.loc 1 67 0
	beq	.L36
	.loc 1 69 0
	cmp	w0, 5
	beq	.L37
	.loc 1 71 0
	cmp	w0, 7
	beq	.L38
	.loc 1 73 0
	cmp	w0, 4
	beq	.L39
	.loc 1 75 0
	cmp	w0, 6
	beq	.L40
	.loc 1 77 0
	cmp	w0, 8
	beq	.L41
.LBB176:
.LBB177:
	.loc 1 79 0
	cmp	w0, 9
	bne	.L35
	.loc 1 80 0
	mov	w0, w1
.LVL40:
	mov	x1, x2
.LVL41:
	bl	download_notify
.LVL42:
.L27:
.LBE177:
.LBE176:
	.loc 1 83 0
	ldp	x29, x30, [sp], 16
	.cfi_remember_state
	.cfi_restore 30
	.cfi_restore 29
	.cfi_def_cfa 31, 0
	ret
.LVL43:
.L36:
	.cfi_restore_state
	.loc 1 68 0
	cmp	w1, wzr
	mov	x0, x2
.LVL44:
	cset	w1, ne
.LVL45:
	bl	add_ad_rule
.LVL46:
	b	.L27
.LVL47:
.L37:
	.loc 1 70 0
	mov	w0, w1
.LVL48:
	mov	x1, x2
.LVL49:
	bl	clear_ad_rule
.LVL50:
	b	.L27
.LVL51:
.L38:
	.loc 1 72 0
	bl	output_ad_rule
.LVL52:
	b	.L27
.LVL53:
.L39:
	.loc 1 74 0
	cmp	w1, wzr
	mov	x0, x2
.LVL54:
	cset	w1, ne
.LVL55:
	bl	add_appdl_rule
.LVL56:
	b	.L27
.LVL57:
.L40:
	.loc 1 76 0
	mov	w0, w1
.LVL58:
	mov	x1, x2
.LVL59:
	bl	clear_appdl_rule
.LVL60:
	b	.L27
.LVL61:
.L41:
	.loc 1 78 0
	bl	output_appdl_rule
.LVL62:
	b	.L27
.LVL63:
.L35:
.LBB179:
.LBB178:
	.loc 1 82 0
	mov	w1, w0
.LVL64:
	adrp	x0, .LC7
.LVL65:
	add	x0, x0, :lo12:.LC7
	bl	printk
.LVL66:
	b	.L27
.LBE178:
.LBE179:
	.cfi_endproc
.LFE3049:
	.size	proc_cmd, .-proc_cmd
	.align	2
	.type	kernel_hw_receive, %function
kernel_hw_receive:
.LFB3050:
	.loc 1 87 0
	.cfi_startproc
.LVL67:
	stp	x29, x30, [sp, -16]!
	.cfi_def_cfa_offset 16
	.cfi_offset 29, -16
	.cfi_offset 30, -8
.LBB180:
.LBB181:
.LBB182:
.LBB183:
	.file 6 "/mnt/disk/jenkins2/ci/workspace/chipset_component_FRD_b160_Open_Source/component_code/vendor/huawei/extra/build/build_script/austin_kernel_release/kernel/arch/arm64/include/asm/atomic.h"
	.loc 6 85 0
	add	x3, x0, 220
.LBE183:
.LBE182:
.LBE181:
.LBE180:
	.loc 1 87 0
	add	x29, sp, 0
	.cfi_def_cfa_register 29
.LBB187:
.LBB186:
.LBB185:
.LBB184:
	.loc 6 85 0
#APP
// 85 "/mnt/disk/jenkins2/ci/workspace/chipset_component_FRD_b160_Open_Source/component_code/vendor/huawei/extra/build/build_script/austin_kernel_release/kernel/arch/arm64/include/asm/atomic.h" 1
	// atomic_add
1:	ldxr	w1, [x3]
	add	w1, w1, 1
	stxr	w2, w1, [x3]
	cbnz	w2, 1b
// 0 "" 2
.LVL68:
#NO_APP
.LBE184:
.LBE185:
.LBE186:
.LBE187:
	.loc 1 94 0
	ldr	w1, [x0,120]
.LVL69:
	cmp	w1, 15
	bls	.L42
	ldr	x2, [x0,208]
.LVL70:
	.loc 1 96 0
	ldr	w0, [x2]
.LVL71:
	.loc 1 96 0 is_stmt 0 discriminator 1
	cmp	w0, 15
	bls	.L42
	cmp	w1, w0
	bcc	.L42
	.loc 1 98 0 is_stmt 1
	ldrh	w0, [x2,4]
	cbz	w0, .L52
	.loc 1 100 0
	cmp	w0, 1
	beq	.L53
	.loc 1 105 0
	ldr	w1, [x2,16]
	add	x2, x2, 20
	bl	proc_cmd
.LVL72:
.L42:
	.loc 1 109 0
	ldp	x29, x30, [sp], 16
	.cfi_remember_state
	.cfi_restore 30
	.cfi_restore 29
	.cfi_def_cfa 31, 0
	ret
.LVL73:
.L52:
	.cfi_restore_state
	.loc 1 99 0
	adrp	x0, .LANCHOR1+32
	ldr	w1, [x2,12]
	str	w1, [x0,#:lo12:.LANCHOR1+32]
	b	.L42
.L53:
	.loc 1 101 0
	adrp	x0, .LANCHOR1+32
	str	wzr, [x0,#:lo12:.LANCHOR1+32]
	b	.L42
	.cfi_endproc
.LFE3050:
	.size	kernel_hw_receive, .-kernel_hw_receive
	.align	2
	.global	download_app_pro
	.type	download_app_pro, %function
download_app_pro:
.LFB3054:
	.loc 1 174 0
	.cfi_startproc
.LVL74:
	stp	x29, x30, [sp, -80]!
	.cfi_def_cfa_offset 80
	.cfi_offset 29, -80
	.cfi_offset 30, -72
	add	x29, sp, 0
	.cfi_def_cfa_register 29
	stp	x21, x22, [sp,32]
	stp	x23, x24, [sp,48]
	.cfi_offset 21, -48
	.cfi_offset 22, -40
	.cfi_offset 23, -32
	.cfi_offset 24, -24
	mov	x21, x0
	mov	w24, w1
	.loc 1 175 0
	mov	x0, x2
.LVL75:
	mov	w1, w3
.LVL76:
	.loc 1 174 0
	stp	x19, x20, [sp,16]
	str	x25, [sp,64]
	.cfi_offset 19, -64
	.cfi_offset 20, -56
	.cfi_offset 25, -16
	.loc 1 174 0
	mov	x23, x2
	mov	w22, w3
	mov	x25, x4
	.loc 1 175 0
	bl	get_url_path
.LVL77:
	mov	x19, x0
.LVL78:
	.loc 1 183 0
	cbz	x0, .L77
	.loc 1 185 0
	mov	x0, x21
	bl	get_select
.LVL79:
	mov	w20, w0
.LVL80:
	.loc 1 186 0
	cbz	w0, .L61
	.loc 1 187 0
	mov	x0, x19
	bl	kfree
.LVL81:
	.loc 1 188 0
	cmp	w20, 3
	beq	.L68
	.loc 1 190 0
	cmp	w20, 2
	beq	.L77
	.loc 1 192 0
	cmp	w20, 1
	beq	.L62
.L61:
	.loc 1 195 0
	mov	x0, x21
	mov	w1, w24
	mov	x2, x19
	bl	get_download_monitor
.LVL82:
	mov	x21, x0
.LVL83:
	.loc 1 196 0
	mov	x0, x19
	bl	kfree
.LVL84:
	.loc 1 197 0
	cbz	x21, .L79
	.loc 1 201 0
	ldrb	w0, [x21,104]
	cbz	w0, .L80
.LVL85:
.L62:
	.loc 1 193 0
	mov	w0, -1
.L56:
	.loc 1 232 0
	ldp	x19, x20, [sp,16]
	.cfi_remember_state
	.cfi_restore 20
	.cfi_restore 19
.LVL86:
	ldp	x21, x22, [sp,32]
	.cfi_restore 22
	.cfi_restore 21
.LVL87:
	ldp	x23, x24, [sp,48]
	.cfi_restore 24
	.cfi_restore 23
.LVL88:
	ldr	x25, [sp,64]
	.cfi_restore 25
.LVL89:
	ldp	x29, x30, [sp], 80
	.cfi_restore 30
	.cfi_restore 29
	.cfi_def_cfa 31, 0
	ret
.LVL90:
.L76:
	.cfi_restore_state
	.loc 1 217 0
	mov	x0, x21
	bl	free_node
.LVL91:
.L77:
	.loc 1 218 0
	mov	w0, 1
	.loc 1 232 0
	ldr	x25, [sp,64]
	.cfi_remember_state
	.cfi_restore 25
.LVL92:
	ldp	x19, x20, [sp,16]
	.cfi_restore 19
	.cfi_restore 20
.LVL93:
	ldp	x21, x22, [sp,32]
	.cfi_restore 21
	.cfi_restore 22
.LVL94:
	ldp	x23, x24, [sp,48]
	.cfi_restore 23
	.cfi_restore 24
.LVL95:
	ldp	x29, x30, [sp], 80
	.cfi_restore 29
	.cfi_restore 30
	.cfi_def_cfa 31, 0
	ret
.LVL96:
.L80:
	.cfi_restore_state
	.loc 1 203 0
	mov	x0, x23
	mov	w1, w22
	bl	get_url_form_data
.LVL97:
	mov	x19, x0
.LVL98:
	.loc 1 204 0
	cbz	x0, .L76
	.loc 1 208 0
	ldr	w0, [x21,112]
	mov	w1, w24
	mov	x2, x19
	mov	x3, x25
	bl	get_report_msg
.LVL99:
	mov	x22, x0
.LVL100:
	.loc 1 209 0
	mov	x0, x19
	bl	kfree
.LVL101:
	.loc 1 210 0
	cbz	x22, .L76
	.loc 1 214 0
	adrp	x0, .LANCHOR1+32
	mov	x1, x22
	ldr	w0, [x0,#:lo12:.LANCHOR1+32]
	bl	notify_event.constprop.6
.LVL102:
	mov	w19, w0
.LVL103:
	.loc 1 215 0
	mov	x0, x22
	bl	kfree
.LVL104:
	.loc 1 216 0
	tbnz	w19, #31, .L76
.LBB188:
.LBB189:
.LBB190:
.LBB191:
	.file 7 "/mnt/disk/jenkins2/ci/workspace/chipset_component_FRD_b160_Open_Source/component_code/vendor/huawei/extra/build/build_script/austin_kernel_release/kernel/arch/arm64/include/asm/thread_info.h"
	.loc 7 85 0
	mov	x0, sp
	and	x0, x0, -16384
.LBE191:
.LBE190:
.LBB192:
.LBB193:
	.file 8 "/mnt/disk/jenkins2/ci/workspace/chipset_component_FRD_b160_Open_Source/component_code/vendor/huawei/extra/build/build_script/austin_kernel_release/kernel/include/linux/compiler.h"
	.loc 8 216 0 discriminator 4
	ldr	w1, [x0,24]
.LBE193:
.LBE192:
.LBE189:
.LBE188:
	.loc 1 220 0
	tst	w1, 983040
	bne	.L66
.LBB194:
.LBB195:
.LBB196:
.LBB197:
	.loc 8 216 0 discriminator 4
	ldr	w1, [x0,24]
.LBE197:
.LBE196:
.LBE195:
.LBE194:
	.loc 1 220 0 discriminator 1
	tst	w1, 2096896
	bne	.L66
	.loc 1 221 0
	mov	x0, x21
	bl	wait_user_event
.LVL105:
	mov	w20, w0
	.loc 1 226 0
	cbz	w20, .L62
.L81:
	.loc 1 227 0
	cmp	w20, 2
	cset	w0, eq
	b	.L56
.LVL106:
.L68:
	.loc 1 189 0
	mov	w0, 0
	b	.L56
.LVL107:
.L79:
	.loc 1 198 0
	adrp	x0, .LC8
	add	x0, x0, :lo12:.LC8
	bl	printk
.LVL108:
	.loc 1 199 0
	mov	w0, 1
	b	.L56
.LVL109:
.L66:
.LBB198:
.LBB199:
.LBB200:
.LBB201:
	.loc 8 216 0 discriminator 4
	ldr	w1, [x0,24]
.LBE201:
.LBE200:
.LBE199:
.LBE198:
.LBB202:
.LBB203:
.LBB204:
.LBB205:
	ldr	w2, [x0,24]
.LBE205:
.LBE204:
.LBE203:
.LBE202:
	.loc 1 223 0 discriminator 2
	adrp	x0, .LC9
	add	x0, x0, :lo12:.LC9
	and	w1, w1, 983040
	and	w2, w2, 2096896
	bl	printk
.LVL110:
	.loc 1 226 0
	cbz	w20, .L62
	b	.L81
	.cfi_endproc
.LFE3054:
	.size	download_app_pro, .-download_app_pro
	.align	2
	.global	hw_match_httppack
	.type	hw_match_httppack, %function
hw_match_httppack:
.LFB3055:
	.loc 1 236 0
	.cfi_startproc
.LVL111:
	stp	x29, x30, [sp, -64]!
	.cfi_def_cfa_offset 64
	.cfi_offset 29, -64
	.cfi_offset 30, -56
	add	x29, sp, 0
	.cfi_def_cfa_register 29
	stp	x23, x24, [sp,48]
	.cfi_offset 23, -16
	.cfi_offset 24, -8
	mov	x23, x0
	.loc 1 241 0
	mov	w0, w1
.LVL112:
	.loc 1 236 0
	stp	x19, x20, [sp,16]
	stp	x21, x22, [sp,32]
	.cfi_offset 19, -48
	.cfi_offset 20, -40
	.cfi_offset 21, -32
	.cfi_offset 22, -24
	.loc 1 236 0
	mov	w19, w1
	mov	x21, x2
	mov	w22, w3
	mov	x20, x4
	.loc 1 241 0
	bl	match_appdl_uid
.LVL113:
	uxtb	w0, w0
	cbnz	w0, .L114
.L83:
	.loc 1 247 0 discriminator 1
	mov	w0, w19
	bl	match_ad_uid
.LVL114:
	uxtb	w0, w0
	cbnz	w0, .L115
.L85:
	.loc 1 236 0
	mov	w20, 1
.LVL115:
.L112:
	.loc 1 275 0
	cmn	w19, #1
	beq	.L94
.L101:
	.loc 1 288 0
	mov	w0, w20
	ldp	x19, x20, [sp,16]
	.cfi_remember_state
	.cfi_restore 20
	.cfi_restore 19
.LVL116:
	ldp	x21, x22, [sp,32]
	.cfi_restore 22
	.cfi_restore 21
.LVL117:
	ldp	x23, x24, [sp,48]
	.cfi_restore 24
	.cfi_restore 23
.LVL118:
	ldp	x29, x30, [sp], 64
	.cfi_restore 30
	.cfi_restore 29
	.cfi_def_cfa 31, 0
	ret
.LVL119:
.L114:
	.cfi_restore_state
	.loc 1 242 0
	mov	x0, x21
	mov	w1, w22
	bl	match_appdl_url
.LVL120:
	uxtb	w0, w0
	cbz	w0, .L83
	.loc 1 244 0
	mov	x4, x20
	mov	x0, x23
	mov	w1, w19
	mov	x2, x21
	mov	w3, w22
	bl	download_app_pro
.LVL121:
	mov	w20, w0
.LVL122:
	.loc 1 275 0
	cbnz	w0, .L112
.LVL123:
.L94:
	.loc 1 276 0
	mov	x0, x21
	mov	w1, w22
	bl	get_url_path
.LVL124:
	mov	x19, x0
.LVL125:
	.loc 1 277 0
	cbz	x0, .L101
	.loc 1 279 0
	bl	strlen
.LVL126:
	mov	x1, x0
	.loc 1 279 0 is_stmt 0 discriminator 1
	mov	x0, x19
	bl	is_droplist
.LVL127:
	uxtb	w0, w0
	.loc 1 279 0
	cbz	w0, .L116
	.loc 1 280 0 is_stmt 1
	mov	w20, 0
.L92:
	.loc 1 285 0
	mov	x0, x19
	bl	kfree
.LVL128:
	.loc 1 288 0
	mov	w0, w20
	ldp	x19, x20, [sp,16]
	.cfi_remember_state
	.cfi_restore 19
	.cfi_restore 20
.LVL129:
	ldp	x21, x22, [sp,32]
	.cfi_restore 21
	.cfi_restore 22
.LVL130:
	ldp	x23, x24, [sp,48]
	.cfi_restore 23
	.cfi_restore 24
.LVL131:
	ldp	x29, x30, [sp], 64
	.cfi_restore 29
	.cfi_restore 30
	.cfi_def_cfa 31, 0
	ret
.LVL132:
.L115:
	.cfi_restore_state
	.loc 1 248 0
	mov	w0, w19
	mov	x1, x21
	mov	w2, w22
	bl	match_ad_url
.LVL133:
	uxtb	w0, w0
	cbz	w0, .L85
.LBB206:
	.loc 1 253 0
	adrp	x23, .LANCHOR1
.LVL134:
	bl	get_cur_time
.LVL135:
	add	x23, x23, :lo12:.LANCHOR1
	ldr	x1, [x23,40]
	sub	x0, x0, x1
	cmp	x0, 1000
	bhi	.L117
.LBE206:
	.loc 1 236 0
	mov	w20, 0
.LVL136:
	b	.L94
.LVL137:
.L116:
	.loc 1 283 0
	mov	x0, x19
	bl	strlen
.LVL138:
	mov	x1, x0
	.loc 1 283 0 is_stmt 0 discriminator 1
	mov	x0, x19
	bl	add_to_droplist
.LVL139:
	b	.L92
.LVL140:
.L117:
.LBB207:
	.loc 1 254 0 is_stmt 1
	bl	get_cur_time
.LVL141:
	str	x0, [x23,40]
	.loc 1 256 0
	mov	w1, w22
	mov	x0, x21
	bl	get_url_form_data
.LVL142:
	mov	x24, x0
	.loc 1 257 0
	cbz	x0, .L118
	.loc 1 261 0
	mov	w1, w19
	mov	w0, 100
	mov	x2, x24
	mov	x3, x20
	bl	get_report_msg
.LVL143:
	mov	x19, x0
.LVL144:
	.loc 1 262 0
	cbz	x0, .L89
	.loc 1 263 0
	ldr	w0, [x23,32]
	mov	x1, x19
	bl	notify_event.constprop.6
.LVL145:
	.loc 1 266 0
	mov	x0, x19
	bl	kfree
.LVL146:
.L90:
	.loc 1 270 0
	mov	x0, x24
.LBE207:
	.loc 1 236 0
	mov	w20, 0
.LVL147:
.LBB208:
	.loc 1 270 0
	bl	kfree
.LVL148:
	b	.L94
.LVL149:
.L118:
	.loc 1 258 0
	adrp	x0, .LC10
	.loc 1 259 0
	mov	w20, 1
.LVL150:
	.loc 1 258 0
	add	x0, x0, :lo12:.LC10
	bl	printk
.LVL151:
	.loc 1 259 0
	b	.L101
.LVL152:
.L89:
	.loc 1 268 0
	adrp	x0, .LC11
.LVL153:
	add	x0, x0, :lo12:.LC11
	bl	printk
.LVL154:
	b	.L90
.LBE208:
	.cfi_endproc
.LFE3055:
	.size	hw_match_httppack, .-hw_match_httppack
	.align	2
	.type	net_hw_hook_localout, %function
net_hw_hook_localout:
.LFB3056:
	.loc 1 296 0
	.cfi_startproc
.LVL155:
	stp	x29, x30, [sp, -96]!
	.cfi_def_cfa_offset 96
	.cfi_offset 29, -96
	.cfi_offset 30, -88
	add	x29, sp, 0
	.cfi_def_cfa_register 29
	stp	x19, x20, [sp,16]
	.cfi_offset 19, -80
	.cfi_offset 20, -72
	mov	x19, x1
	stp	x21, x22, [sp,32]
	stp	x23, x24, [sp,48]
	.cfi_offset 21, -64
	.cfi_offset 22, -56
	.cfi_offset 23, -48
	.cfi_offset 24, -40
	ldr	x1, [x1,200]
.LVL156:
.LBB223:
.LBB224:
.LBB225:
	.loc 4 1714 0
	ldrh	w0, [x19,186]
.LVL157:
.LBE225:
.LBE224:
.LBE223:
.LBB226:
.LBB227:
.LBB228:
	.loc 4 1731 0
	ldrh	w2, [x19,188]
.LVL158:
.LBE228:
.LBE227:
.LBE226:
	.loc 1 306 0
	adds	x21, x1, x0
.LBB231:
.LBB230:
.LBB229:
	.loc 4 1731 0
	add	x22, x1, x2
.LBE229:
.LBE230:
.LBE231:
	.loc 1 306 0
	beq	.L137
	cbz	x22, .L137
	.loc 1 311 0
	ldr	x0, [x19,208]
	cbz	x0, .L123
.LBB232:
	.loc 1 314 0
	ldrb	w1, [x1,x2]
	.loc 1 318 0
	mov	w0, 1
	.loc 1 316 0
	ldr	w23, [x19,120]
	.loc 1 314 0
	ubfiz	x1, x1, 2, 4
	add	x1, x22, x1
.LVL159:
	.loc 1 315 0
	ldrb	w20, [x1,12]
	ubfx	x20, x20, 4, 4
	add	x20, x1, x20, lsl 2
.LVL160:
	.loc 1 316 0
	sub	x1, x22, x20
.LVL161:
	add	w23, w23, w1
.LVL162:
	.loc 1 317 0
	cmp	w23, 4
	bgt	.L152
.L144:
.LBE232:
	.loc 1 340 0
	ldp	x19, x20, [sp,16]
	.cfi_remember_state
	.cfi_restore 20
	.cfi_restore 19
.LVL163:
	ldp	x21, x22, [sp,32]
	.cfi_restore 22
	.cfi_restore 21
	ldp	x23, x24, [sp,48]
	.cfi_restore 24
	.cfi_restore 23
.LVL164:
	ldp	x29, x30, [sp], 96
	.cfi_restore 30
	.cfi_restore 29
	.cfi_def_cfa 31, 0
	ret
.LVL165:
.L152:
	.cfi_restore_state
.LBB249:
	.loc 1 319 0
	adrp	x24, .LANCHOR0
	mov	x0, x20
	add	x24, x24, :lo12:.LANCHOR0
	mov	w2, 5
	add	x1, x24, 56
	bl	strfindpos
.LVL166:
	cbz	x0, .L153
.L150:
.LBB233:
	.loc 1 329 0
	ldrh	w0, [x21,2]
	.loc 1 324 0 discriminator 4
	adrp	x1, .LC13
	.loc 1 325 0
	ldr	w5, [x22,16]
	.loc 1 324 0 discriminator 4
	add	x1, x1, :lo12:.LC13
.LBB234:
.LBB235:
	.file 9 "/mnt/disk/jenkins2/ci/workspace/chipset_component_FRD_b160_Open_Source/component_code/vendor/huawei/extra/build/build_script/austin_kernel_release/kernel/include/uapi/linux/swab.h"
	.loc 9 53 0
	lsl	w6, w0, 8
	orr	w6, w6, w0, lsr 8
.LBE235:
.LBE234:
	.loc 1 324 0
	and	w2, w5, 255
	ubfx	x3, x5, 8, 8
	ubfx	x4, x5, 16, 8
	.loc 1 324 0 is_stmt 0 discriminator 4
	add	x0, x29, 64
	.loc 1 324 0
	lsr	w5, w5, 24
	.loc 1 324 0 discriminator 4
	uxth	w6, w6
	bl	sprintf
.LVL167:
.LBB236:
.LBB237:
	.loc 1 47 0 is_stmt 1
	cbz	x19, .L132
	.loc 1 49 0
	ldr	x0, [x19,24]
.LVL168:
	.loc 1 50 0
	cbz	x0, .L132
	.loc 1 52 0 discriminator 1
	ldrb	w1, [x0,18]
	.loc 1 48 0
	mov	w21, -1
	.loc 1 52 0 discriminator 1
	uxtb	w1, w1
	cmp	w1, 6
	beq	.L125
	.loc 1 54 0
	ldr	x0, [x0,784]
.LVL169:
	cbz	x0, .L125
	.loc 1 54 0 is_stmt 0 discriminator 1
	ldr	x0, [x0,24]
.LVL170:
	.loc 1 55 0 is_stmt 1
	cbz	x0, .L125
	ldr	x0, [x0,208]
.LVL171:
	ldr	w21, [x0,28]
.LVL172:
.L125:
.LBE237:
.LBE236:
	.loc 1 331 0
	mov	x2, x20
	mov	x0, x19
.LVL173:
	mov	w1, w21
	mov	w3, w23
	add	x4, x29, 64
	bl	hw_match_httppack
.LVL174:
	mov	w20, w0
.LVL175:
	.loc 1 332 0
	cbnz	w0, .L126
.L155:
.LBB240:
.LBB241:
	.loc 1 164 0
	ldr	x0, [x19,24]
	cbnz	x0, .L154
.L128:
.LBE241:
.LBE240:
.LBE233:
.LBE249:
	.loc 1 338 0
	mov	w0, w20
.L156:
	.loc 1 340 0
	ldp	x19, x20, [sp,16]
	.cfi_remember_state
	.cfi_restore 19
	.cfi_restore 20
.LVL176:
	ldp	x21, x22, [sp,32]
	.cfi_restore 21
	.cfi_restore 22
	ldp	x23, x24, [sp,48]
	.cfi_restore 23
	.cfi_restore 24
.LVL177:
	ldp	x29, x30, [sp], 96
	.cfi_restore 29
	.cfi_restore 30
	.cfi_def_cfa 31, 0
	ret
.LVL178:
.L132:
	.cfi_restore_state
.LBB250:
.LBB246:
.LBB243:
.LBB238:
	.loc 1 48 0
	mov	w21, -1
.LBE238:
.LBE243:
	.loc 1 331 0
	mov	x2, x20
	mov	x0, x19
.LVL179:
	mov	w1, w21
	mov	w3, w23
	add	x4, x29, 64
	bl	hw_match_httppack
.LVL180:
	mov	w20, w0
.LVL181:
	.loc 1 332 0
	cbz	w0, .L155
.L126:
.LBE246:
.LBE250:
	.loc 1 337 0
	cmn	w0, #1
	.loc 1 338 0
	mov	w0, 0
	.loc 1 337 0
	bne	.L128
	.loc 1 340 0
	ldp	x19, x20, [sp,16]
	.cfi_remember_state
	.cfi_restore 19
	.cfi_restore 20
.LVL182:
	ldp	x21, x22, [sp,32]
	.cfi_restore 21
	.cfi_restore 22
	ldp	x23, x24, [sp,48]
	.cfi_restore 23
	.cfi_restore 24
.LVL183:
	ldp	x29, x30, [sp], 96
	.cfi_restore 29
	.cfi_restore 30
	.cfi_def_cfa 31, 0
	ret
.LVL184:
.L153:
	.cfi_restore_state
.LBB251:
	.loc 1 320 0
	mov	x0, x20
	add	x1, x24, 64
	mov	w2, 5
	bl	strfindpos
.LVL185:
	.loc 1 319 0 discriminator 1
	cbnz	x0, .L150
.L123:
.LBB247:
.LBB244:
.LBB239:
	.loc 1 48 0
	mov	w20, 1
.LVL186:
.LBE239:
.LBE244:
.LBE247:
.LBE251:
	.loc 1 338 0
	mov	w0, w20
	b	.L156
.L154:
.LBB252:
.LBB248:
.LBB245:
.LBB242:
	.loc 1 165 0
	mov	w1, 104
	str	w1, [x0,624]
	.loc 1 166 0
	ldr	x1, [x19,24]
	mov	x0, x1
	ldr	x1, [x1,880]
	blr	x1
.LVL187:
	.loc 1 167 0
	ldr	x4, [x19,24]
	adrp	x0, .LC14
	mov	w1, w21
	add	x0, x0, :lo12:.LC14
	mov	x3, x19
	ldr	w2, [x4,624]
	bl	printk
.LVL188:
.LBE242:
.LBE245:
.LBE248:
.LBE252:
	.loc 1 338 0
	mov	w0, w20
	b	.L156
.LVL189:
.L137:
	.loc 1 307 0
	adrp	x0, .LC12
	add	x0, x0, :lo12:.LC12
	bl	printk
.LVL190:
	.loc 1 308 0
	mov	w0, 1
	b	.L144
	.cfi_endproc
.LFE3056:
	.size	net_hw_hook_localout, .-net_hw_hook_localout
	.global	g_http_s
	.global	g_post_s
	.global	g_get_s
	.section	__modver,"a",%progbits
	.align	3
	.type	__modver_attr, %object
	.size	__modver_attr, 8
__modver_attr:
	.xword	___modver_attr
	.section	.exitcall.exit,"aw",%progbits
	.align	3
	.type	__exitcall_nf_exit, %object
	.size	__exitcall_nf_exit, 8
__exitcall_nf_exit:
	.xword	nf_exit
	.section	.initcall6.init,"aw",%progbits
	.align	3
	.type	__initcall_nf_init6, %object
	.size	__initcall_nf_init6, 8
__initcall_nf_init6:
	.xword	nf_init
	.data
	.align	3
.LANCHOR0 = . + 0
	.type	net_hooks, %object
	.size	net_hooks, 56
net_hooks:
	.zero	16
	.xword	net_hw_hook_localout
	.xword	0
	.zero	8
	.byte	2
	.zero	3
	.word	3
	.word	-1
	.zero	4
	.type	g_get_s, %object
	.size	g_get_s, 4
g_get_s:
	.byte	71
	.byte	69
	.byte	84
	.byte	0
	.zero	4
	.type	g_post_s, %object
	.size	g_post_s, 5
g_post_s:
	.byte	80
	.byte	79
	.byte	83
	.byte	84
	.byte	0
	.zero	3
	.type	___modver_attr, %object
	.size	___modver_attr, 72
___modver_attr:
	.xword	.LC15
	.hword	292
	.zero	6
	.xword	__modver_version_show
	.zero	32
	.xword	.LC16
	.xword	.LC17
	.type	g_http_s, %object
	.size	g_http_s, 5
g_http_s:
	.byte	72
	.byte	84
	.byte	84
	.byte	80
	.byte	0
	.section	.rodata.str1.8,"aMS",%progbits,1
	.align	3
.LC0:
	.string	"\0016hwad:nf_init ret=%d  "
.LC1:
	.string	"\0016hwad: netlink_init failed NETLINK_HW_NF\n"
	.zero	5
.LC2:
	.string	"&(&g_netlink_lock)->rlock"
	.zero	6
.LC3:
	.string	"\0016hwad:nf_init success\n"
.LC4:
	.string	"\0016hwad:cannot notify pid 0 or nlfd 0\n"
	.zero	2
.LC5:
	.string	"\0016hwad: alloc skb fail\n"
.LC6:
	.string	"\0016hwad: notify_event fail\n"
	.zero	5
.LC7:
	.string	"\0016hwad:kernel_hw_receive cmd=%d\n"
	.zero	7
.LC8:
	.string	"\0016hwad:get_download_monitor=NULL\n "
	.zero	5
.LC9:
	.string	"\0016hwad:in_irq=%d in_interrupt=%d"
	.zero	7
.LC10:
	.string	"\0016hwad:notify_event ad tempurl=NULL\n"
	.zero	3
.LC11:
	.string	"\0016hwad:report to systemmanager false\n"
	.zero	2
.LC12:
	.string	"\0016\nhwad:net_hw_hook_localout drop NULL==iph\n"
	.zero	3
.LC13:
	.string	"%d.%d.%d.%d:%d"
	.zero	1
.LC14:
	.string	"\0016hwad:reject: uid=%d sk_err=%d for skb=%p sk=%p\n"
	.zero	6
.LC15:
	.string	"version"
.LC16:
	.string	"nf_hw_hook"
	.zero	5
.LC17:
	.string	"1.0.1"
	.bss
	.align	3
.LANCHOR1 = . + 0
	.type	g_hw_nlfd, %object
	.size	g_hw_nlfd, 8
g_hw_nlfd:
	.zero	8
	.type	g_netlink_lock, %object
	.size	g_netlink_lock, 24
g_netlink_lock:
	.zero	24
	.type	__key.41969, %object
	.size	__key.41969, 0
__key.41969:
	.type	g_uspa_pid, %object
	.size	g_uspa_pid, 4
g_uspa_pid:
	.zero	4
	.zero	4
	.type	g_lastrepot, %object
	.size	g_lastrepot, 8
g_lastrepot:
	.zero	8
	.text
.Letext0:
	.file 10 "/mnt/disk/jenkins2/ci/workspace/chipset_component_FRD_b160_Open_Source/component_code/vendor/huawei/extra/build/build_script/austin_kernel_release/kernel/include/uapi/asm-generic/int-ll64.h"
	.file 11 "/mnt/disk/jenkins2/ci/workspace/chipset_component_FRD_b160_Open_Source/component_code/vendor/huawei/extra/build/build_script/austin_kernel_release/kernel/include/asm-generic/int-ll64.h"
	.file 12 "/mnt/disk/jenkins2/ci/workspace/chipset_component_FRD_b160_Open_Source/component_code/vendor/huawei/extra/build/build_script/austin_kernel_release/kernel/include/uapi/asm-generic/posix_types.h"
	.file 13 "/mnt/disk/jenkins2/ci/workspace/chipset_component_FRD_b160_Open_Source/component_code/vendor/huawei/extra/build/build_script/austin_kernel_release/kernel/include/uapi/linux/types.h"
	.file 14 "/mnt/disk/jenkins2/ci/workspace/chipset_component_FRD_b160_Open_Source/component_code/vendor/huawei/extra/build/build_script/austin_kernel_release/kernel/include/linux/types.h"
	.file 15 "/mnt/disk/jenkins2/ci/workspace/chipset_component_FRD_b160_Open_Source/component_code/vendor/huawei/extra/build/build_script/austin_kernel_release/kernel/include/linux/export.h"
	.file 16 "/mnt/disk/jenkins2/ci/workspace/chipset_component_FRD_b160_Open_Source/component_code/vendor/huawei/extra/build/build_script/austin_kernel_release/kernel/include/linux/init.h"
	.file 17 "/mnt/disk/jenkins2/ci/workspace/chipset_component_FRD_b160_Open_Source/component_code/vendor/huawei/extra/build/build_script/austin_kernel_release/kernel/include/linux/capability.h"
	.file 18 "/mnt/disk/jenkins2/ci/workspace/chipset_component_FRD_b160_Open_Source/component_code/vendor/huawei/extra/build/build_script/austin_kernel_release/kernel/include/linux/thread_info.h"
	.file 19 "/mnt/disk/jenkins2/ci/workspace/chipset_component_FRD_b160_Open_Source/component_code/vendor/huawei/extra/build/build_script/austin_kernel_release/kernel/include/uapi/linux/time.h"
	.file 20 "/mnt/disk/jenkins2/ci/workspace/chipset_component_FRD_b160_Open_Source/component_code/vendor/huawei/extra/build/build_script/austin_kernel_release/kernel/arch/arm64/include/asm/compat.h"
	.file 21 "/mnt/disk/jenkins2/ci/workspace/chipset_component_FRD_b160_Open_Source/component_code/vendor/huawei/extra/build/build_script/austin_kernel_release/kernel/include/uapi/asm-generic/poll.h"
	.file 22 "/mnt/disk/jenkins2/ci/workspace/chipset_component_FRD_b160_Open_Source/component_code/vendor/huawei/extra/build/build_script/austin_kernel_release/kernel/include/linux/sched.h"
	.file 23 "/mnt/disk/jenkins2/ci/workspace/chipset_component_FRD_b160_Open_Source/component_code/vendor/huawei/extra/build/build_script/austin_kernel_release/kernel/arch/arm64/include/uapi/asm/ptrace.h"
	.file 24 "/mnt/disk/jenkins2/ci/workspace/chipset_component_FRD_b160_Open_Source/component_code/vendor/huawei/extra/build/build_script/austin_kernel_release/kernel/arch/arm64/include/asm/spinlock_types.h"
	.file 25 "/mnt/disk/jenkins2/ci/workspace/chipset_component_FRD_b160_Open_Source/component_code/vendor/huawei/extra/build/build_script/austin_kernel_release/kernel/include/linux/spinlock_types.h"
	.file 26 "/mnt/disk/jenkins2/ci/workspace/chipset_component_FRD_b160_Open_Source/component_code/vendor/huawei/extra/build/build_script/austin_kernel_release/kernel/include/linux/rwlock_types.h"
	.file 27 "/mnt/disk/jenkins2/ci/workspace/chipset_component_FRD_b160_Open_Source/component_code/vendor/huawei/extra/build/build_script/austin_kernel_release/kernel/arch/arm64/include/asm/fpsimd.h"
	.file 28 "/mnt/disk/jenkins2/ci/workspace/chipset_component_FRD_b160_Open_Source/component_code/vendor/huawei/extra/build/build_script/austin_kernel_release/kernel/arch/arm64/include/asm/processor.h"
	.file 29 "/mnt/disk/jenkins2/ci/workspace/chipset_component_FRD_b160_Open_Source/component_code/vendor/huawei/extra/build/build_script/austin_kernel_release/kernel/include/asm-generic/atomic-long.h"
	.file 30 "/mnt/disk/jenkins2/ci/workspace/chipset_component_FRD_b160_Open_Source/component_code/vendor/huawei/extra/build/build_script/austin_kernel_release/kernel/include/linux/seqlock.h"
	.file 31 "/mnt/disk/jenkins2/ci/workspace/chipset_component_FRD_b160_Open_Source/component_code/vendor/huawei/extra/build/build_script/austin_kernel_release/kernel/include/linux/plist.h"
	.file 32 "/mnt/disk/jenkins2/ci/workspace/chipset_component_FRD_b160_Open_Source/component_code/vendor/huawei/extra/build/build_script/austin_kernel_release/kernel/include/linux/rbtree.h"
	.file 33 "/mnt/disk/jenkins2/ci/workspace/chipset_component_FRD_b160_Open_Source/component_code/vendor/huawei/extra/build/build_script/austin_kernel_release/kernel/include/linux/cpumask.h"
	.file 34 "/mnt/disk/jenkins2/ci/workspace/chipset_component_FRD_b160_Open_Source/component_code/vendor/huawei/extra/build/build_script/austin_kernel_release/kernel/include/linux/nodemask.h"
	.file 35 "/mnt/disk/jenkins2/ci/workspace/chipset_component_FRD_b160_Open_Source/component_code/vendor/huawei/extra/build/build_script/austin_kernel_release/kernel/include/linux/osq_lock.h"
	.file 36 "/mnt/disk/jenkins2/ci/workspace/chipset_component_FRD_b160_Open_Source/component_code/vendor/huawei/extra/build/build_script/austin_kernel_release/kernel/include/linux/rwsem.h"
	.file 37 "/mnt/disk/jenkins2/ci/workspace/chipset_component_FRD_b160_Open_Source/component_code/vendor/huawei/extra/build/build_script/austin_kernel_release/kernel/include/linux/wait.h"
	.file 38 "/mnt/disk/jenkins2/ci/workspace/chipset_component_FRD_b160_Open_Source/component_code/vendor/huawei/extra/build/build_script/austin_kernel_release/kernel/include/linux/completion.h"
	.file 39 "/mnt/disk/jenkins2/ci/workspace/chipset_component_FRD_b160_Open_Source/component_code/vendor/huawei/extra/build/build_script/austin_kernel_release/kernel/include/linux/mm_types.h"
	.file 40 "/mnt/disk/jenkins2/ci/workspace/chipset_component_FRD_b160_Open_Source/component_code/vendor/huawei/extra/build/build_script/austin_kernel_release/kernel/include/linux/lockdep.h"
	.file 41 "/mnt/disk/jenkins2/ci/workspace/chipset_component_FRD_b160_Open_Source/component_code/vendor/huawei/extra/build/build_script/austin_kernel_release/kernel/include/linux/uprobes.h"
	.file 42 "/mnt/disk/jenkins2/ci/workspace/chipset_component_FRD_b160_Open_Source/component_code/vendor/huawei/extra/build/build_script/austin_kernel_release/kernel/arch/arm64/include/asm/pgtable-types.h"
	.file 43 "/mnt/disk/jenkins2/ci/workspace/chipset_component_FRD_b160_Open_Source/component_code/vendor/huawei/extra/build/build_script/austin_kernel_release/kernel/arch/arm64/include/asm/mmu.h"
	.file 44 "/mnt/disk/jenkins2/ci/workspace/chipset_component_FRD_b160_Open_Source/component_code/vendor/huawei/extra/build/build_script/austin_kernel_release/kernel/include/linux/fs.h"
	.file 45 "/mnt/disk/jenkins2/ci/workspace/chipset_component_FRD_b160_Open_Source/component_code/vendor/huawei/extra/build/build_script/austin_kernel_release/kernel/include/linux/mm.h"
	.file 46 "/mnt/disk/jenkins2/ci/workspace/chipset_component_FRD_b160_Open_Source/component_code/vendor/huawei/extra/build/build_script/austin_kernel_release/kernel/include/asm-generic/cputime_jiffies.h"
	.file 47 "/mnt/disk/jenkins2/ci/workspace/chipset_component_FRD_b160_Open_Source/component_code/vendor/huawei/extra/build/build_script/austin_kernel_release/kernel/include/linux/llist.h"
	.file 48 "/mnt/disk/jenkins2/ci/workspace/chipset_component_FRD_b160_Open_Source/component_code/vendor/huawei/extra/build/build_script/austin_kernel_release/kernel/include/linux/uidgid.h"
	.file 49 "/mnt/disk/jenkins2/ci/workspace/chipset_component_FRD_b160_Open_Source/component_code/vendor/huawei/extra/build/build_script/austin_kernel_release/kernel/include/linux/sem.h"
	.file 50 "/mnt/disk/jenkins2/ci/workspace/chipset_component_FRD_b160_Open_Source/component_code/vendor/huawei/extra/build/build_script/austin_kernel_release/kernel/include/linux/shm.h"
	.file 51 "/mnt/disk/jenkins2/ci/workspace/chipset_component_FRD_b160_Open_Source/component_code/vendor/huawei/extra/build/build_script/austin_kernel_release/kernel/include/uapi/asm-generic/signal.h"
	.file 52 "/mnt/disk/jenkins2/ci/workspace/chipset_component_FRD_b160_Open_Source/component_code/vendor/huawei/extra/build/build_script/austin_kernel_release/kernel/include/uapi/asm-generic/signal-defs.h"
	.file 53 "/mnt/disk/jenkins2/ci/workspace/chipset_component_FRD_b160_Open_Source/component_code/vendor/huawei/extra/build/build_script/austin_kernel_release/kernel/include/uapi/asm-generic/siginfo.h"
	.file 54 "/mnt/disk/jenkins2/ci/workspace/chipset_component_FRD_b160_Open_Source/component_code/vendor/huawei/extra/build/build_script/austin_kernel_release/kernel/include/linux/signal.h"
	.file 55 "/mnt/disk/jenkins2/ci/workspace/chipset_component_FRD_b160_Open_Source/component_code/vendor/huawei/extra/build/build_script/austin_kernel_release/kernel/include/linux/pid.h"
	.file 56 "/mnt/disk/jenkins2/ci/workspace/chipset_component_FRD_b160_Open_Source/component_code/vendor/huawei/extra/build/build_script/austin_kernel_release/kernel/include/linux/pid_namespace.h"
	.file 57 "/mnt/disk/jenkins2/ci/workspace/chipset_component_FRD_b160_Open_Source/component_code/vendor/huawei/extra/build/build_script/austin_kernel_release/kernel/include/linux/mmzone.h"
	.file 58 "/mnt/disk/jenkins2/ci/workspace/chipset_component_FRD_b160_Open_Source/component_code/vendor/huawei/extra/build/build_script/austin_kernel_release/kernel/include/linux/mutex.h"
	.file 59 "/mnt/disk/jenkins2/ci/workspace/chipset_component_FRD_b160_Open_Source/component_code/vendor/huawei/extra/build/build_script/austin_kernel_release/kernel/include/linux/ktime.h"
	.file 60 "/mnt/disk/jenkins2/ci/workspace/chipset_component_FRD_b160_Open_Source/component_code/vendor/huawei/extra/build/build_script/austin_kernel_release/kernel/include/linux/timer.h"
	.file 61 "/mnt/disk/jenkins2/ci/workspace/chipset_component_FRD_b160_Open_Source/component_code/vendor/huawei/extra/build/build_script/austin_kernel_release/kernel/include/linux/workqueue.h"
	.file 62 "/mnt/disk/jenkins2/ci/workspace/chipset_component_FRD_b160_Open_Source/component_code/vendor/huawei/extra/build/build_script/austin_kernel_release/kernel/include/linux/notifier.h"
	.file 63 "/mnt/disk/jenkins2/ci/workspace/chipset_component_FRD_b160_Open_Source/component_code/vendor/huawei/extra/build/build_script/austin_kernel_release/kernel/include/linux/percpu_counter.h"
	.file 64 "/mnt/disk/jenkins2/ci/workspace/chipset_component_FRD_b160_Open_Source/component_code/vendor/huawei/extra/build/build_script/austin_kernel_release/kernel/include/linux/seccomp.h"
	.file 65 "/mnt/disk/jenkins2/ci/workspace/chipset_component_FRD_b160_Open_Source/component_code/vendor/huawei/extra/build/build_script/austin_kernel_release/kernel/include/uapi/linux/resource.h"
	.file 66 "/mnt/disk/jenkins2/ci/workspace/chipset_component_FRD_b160_Open_Source/component_code/vendor/huawei/extra/build/build_script/austin_kernel_release/kernel/include/linux/timerqueue.h"
	.file 67 "/mnt/disk/jenkins2/ci/workspace/chipset_component_FRD_b160_Open_Source/component_code/vendor/huawei/extra/build/build_script/austin_kernel_release/kernel/include/linux/hrtimer.h"
	.file 68 "/mnt/disk/jenkins2/ci/workspace/chipset_component_FRD_b160_Open_Source/component_code/vendor/huawei/extra/build/build_script/austin_kernel_release/kernel/include/linux/task_io_accounting.h"
	.file 69 "/mnt/disk/jenkins2/ci/workspace/chipset_component_FRD_b160_Open_Source/component_code/vendor/huawei/extra/build/build_script/austin_kernel_release/kernel/include/linux/sysctl.h"
	.file 70 "/mnt/disk/jenkins2/ci/workspace/chipset_component_FRD_b160_Open_Source/component_code/vendor/huawei/extra/build/build_script/austin_kernel_release/kernel/include/linux/nsproxy.h"
	.file 71 "/mnt/disk/jenkins2/ci/workspace/chipset_component_FRD_b160_Open_Source/component_code/vendor/huawei/extra/build/build_script/austin_kernel_release/kernel/include/linux/assoc_array.h"
	.file 72 "/mnt/disk/jenkins2/ci/workspace/chipset_component_FRD_b160_Open_Source/component_code/vendor/huawei/extra/build/build_script/austin_kernel_release/kernel/include/linux/key.h"
	.file 73 "/mnt/disk/jenkins2/ci/workspace/chipset_component_FRD_b160_Open_Source/component_code/vendor/huawei/extra/build/build_script/austin_kernel_release/kernel/include/linux/cred.h"
	.file 74 "/mnt/disk/jenkins2/ci/workspace/chipset_component_FRD_b160_Open_Source/component_code/vendor/huawei/extra/build/build_script/austin_kernel_release/kernel/include/uapi/linux/taskstats.h"
	.file 75 "/mnt/disk/jenkins2/ci/workspace/chipset_component_FRD_b160_Open_Source/component_code/vendor/huawei/extra/build/build_script/austin_kernel_release/kernel/include/linux/cgroup-defs.h"
	.file 76 "/mnt/disk/jenkins2/ci/workspace/chipset_component_FRD_b160_Open_Source/component_code/vendor/huawei/extra/build/build_script/austin_kernel_release/kernel/include/linux/compat.h"
	.file 77 "/mnt/disk/jenkins2/ci/workspace/chipset_component_FRD_b160_Open_Source/component_code/vendor/huawei/extra/build/build_script/austin_kernel_release/kernel/include/linux/shrinker.h"
	.file 78 "/mnt/disk/jenkins2/ci/workspace/chipset_component_FRD_b160_Open_Source/component_code/vendor/huawei/extra/build/build_script/austin_kernel_release/kernel/include/linux/vmstat.h"
	.file 79 "/mnt/disk/jenkins2/ci/workspace/chipset_component_FRD_b160_Open_Source/component_code/vendor/huawei/extra/build/build_script/austin_kernel_release/kernel/include/net/net_namespace.h"
	.file 80 "/mnt/disk/jenkins2/ci/workspace/chipset_component_FRD_b160_Open_Source/component_code/vendor/huawei/extra/build/build_script/austin_kernel_release/kernel/include/linux/kref.h"
	.file 81 "/mnt/disk/jenkins2/ci/workspace/chipset_component_FRD_b160_Open_Source/component_code/vendor/huawei/extra/build/build_script/austin_kernel_release/kernel/include/linux/ns_common.h"
	.file 82 "/mnt/disk/jenkins2/ci/workspace/chipset_component_FRD_b160_Open_Source/component_code/vendor/huawei/extra/build/build_script/austin_kernel_release/kernel/include/linux/dcache.h"
	.file 83 "/mnt/disk/jenkins2/ci/workspace/chipset_component_FRD_b160_Open_Source/component_code/vendor/huawei/extra/build/build_script/austin_kernel_release/kernel/include/linux/stat.h"
	.file 84 "/mnt/disk/jenkins2/ci/workspace/chipset_component_FRD_b160_Open_Source/component_code/vendor/huawei/extra/build/build_script/austin_kernel_release/kernel/include/uapi/linux/elf.h"
	.file 85 "/mnt/disk/jenkins2/ci/workspace/chipset_component_FRD_b160_Open_Source/component_code/vendor/huawei/extra/build/build_script/austin_kernel_release/kernel/include/linux/idr.h"
	.file 86 "/mnt/disk/jenkins2/ci/workspace/chipset_component_FRD_b160_Open_Source/component_code/vendor/huawei/extra/build/build_script/austin_kernel_release/kernel/include/linux/kernfs.h"
	.file 87 "/mnt/disk/jenkins2/ci/workspace/chipset_component_FRD_b160_Open_Source/component_code/vendor/huawei/extra/build/build_script/austin_kernel_release/kernel/include/linux/seq_file.h"
	.file 88 "/mnt/disk/jenkins2/ci/workspace/chipset_component_FRD_b160_Open_Source/component_code/vendor/huawei/extra/build/build_script/austin_kernel_release/kernel/include/linux/kobject_ns.h"
	.file 89 "/mnt/disk/jenkins2/ci/workspace/chipset_component_FRD_b160_Open_Source/component_code/vendor/huawei/extra/build/build_script/austin_kernel_release/kernel/include/net/sock.h"
	.file 90 "/mnt/disk/jenkins2/ci/workspace/chipset_component_FRD_b160_Open_Source/component_code/vendor/huawei/extra/build/build_script/austin_kernel_release/kernel/include/linux/sysfs.h"
	.file 91 "/mnt/disk/jenkins2/ci/workspace/chipset_component_FRD_b160_Open_Source/component_code/vendor/huawei/extra/build/build_script/austin_kernel_release/kernel/include/linux/kobject.h"
	.file 92 "/mnt/disk/jenkins2/ci/workspace/chipset_component_FRD_b160_Open_Source/component_code/vendor/huawei/extra/build/build_script/austin_kernel_release/kernel/include/linux/moduleparam.h"
	.file 93 "/mnt/disk/jenkins2/ci/workspace/chipset_component_FRD_b160_Open_Source/component_code/vendor/huawei/extra/build/build_script/austin_kernel_release/kernel/include/linux/jump_label.h"
	.file 94 "/mnt/disk/jenkins2/ci/workspace/chipset_component_FRD_b160_Open_Source/component_code/vendor/huawei/extra/build/build_script/austin_kernel_release/kernel/include/asm-generic/module.h"
	.file 95 "/mnt/disk/jenkins2/ci/workspace/chipset_component_FRD_b160_Open_Source/component_code/vendor/huawei/extra/build/build_script/austin_kernel_release/kernel/include/linux/module.h"
	.file 96 "/mnt/disk/jenkins2/ci/workspace/chipset_component_FRD_b160_Open_Source/component_code/vendor/huawei/extra/build/build_script/austin_kernel_release/kernel/arch/arm64/include/asm/uaccess.h"
	.file 97 "/mnt/disk/jenkins2/ci/workspace/chipset_component_FRD_b160_Open_Source/component_code/vendor/huawei/extra/build/build_script/austin_kernel_release/kernel/include/linux/klist.h"
	.file 98 "/mnt/disk/jenkins2/ci/workspace/chipset_component_FRD_b160_Open_Source/component_code/vendor/huawei/extra/build/build_script/austin_kernel_release/kernel/include/linux/pinctrl/devinfo.h"
	.file 99 "/mnt/disk/jenkins2/ci/workspace/chipset_component_FRD_b160_Open_Source/component_code/vendor/huawei/extra/build/build_script/austin_kernel_release/kernel/include/linux/pm.h"
	.file 100 "/mnt/disk/jenkins2/ci/workspace/chipset_component_FRD_b160_Open_Source/component_code/vendor/huawei/extra/build/build_script/austin_kernel_release/kernel/include/linux/device.h"
	.file 101 "/mnt/disk/jenkins2/ci/workspace/chipset_component_FRD_b160_Open_Source/component_code/vendor/huawei/extra/build/build_script/austin_kernel_release/kernel/include/linux/pm_wakeup.h"
	.file 102 "/mnt/disk/jenkins2/ci/workspace/chipset_component_FRD_b160_Open_Source/component_code/vendor/huawei/extra/build/build_script/austin_kernel_release/kernel/arch/arm64/include/asm/device.h"
	.file 103 "/mnt/disk/jenkins2/ci/workspace/chipset_component_FRD_b160_Open_Source/component_code/vendor/huawei/extra/build/build_script/austin_kernel_release/kernel/include/linux/dma-mapping.h"
	.file 104 "/mnt/disk/jenkins2/ci/workspace/chipset_component_FRD_b160_Open_Source/component_code/vendor/huawei/extra/build/build_script/austin_kernel_release/kernel/include/linux/mod_devicetable.h"
	.file 105 "/mnt/disk/jenkins2/ci/workspace/chipset_component_FRD_b160_Open_Source/component_code/vendor/huawei/extra/build/build_script/austin_kernel_release/kernel/include/linux/of.h"
	.file 106 "/mnt/disk/jenkins2/ci/workspace/chipset_component_FRD_b160_Open_Source/component_code/vendor/huawei/extra/build/build_script/austin_kernel_release/kernel/include/linux/fwnode.h"
	.file 107 "/mnt/disk/jenkins2/ci/workspace/chipset_component_FRD_b160_Open_Source/component_code/vendor/huawei/extra/build/build_script/austin_kernel_release/kernel/include/uapi/linux/uio.h"
	.file 108 "/mnt/disk/jenkins2/ci/workspace/chipset_component_FRD_b160_Open_Source/component_code/vendor/huawei/extra/build/build_script/austin_kernel_release/kernel/include/linux/uio.h"
	.file 109 "/mnt/disk/jenkins2/ci/workspace/chipset_component_FRD_b160_Open_Source/component_code/vendor/huawei/extra/build/build_script/austin_kernel_release/kernel/include/linux/blk_types.h"
	.file 110 "/mnt/disk/jenkins2/ci/workspace/chipset_component_FRD_b160_Open_Source/component_code/vendor/huawei/extra/build/build_script/austin_kernel_release/kernel/include/asm-generic/scatterlist.h"
	.file 111 "/mnt/disk/jenkins2/ci/workspace/chipset_component_FRD_b160_Open_Source/component_code/vendor/huawei/extra/build/build_script/austin_kernel_release/kernel/include/linux/scatterlist.h"
	.file 112 "/mnt/disk/jenkins2/ci/workspace/chipset_component_FRD_b160_Open_Source/component_code/vendor/huawei/extra/build/build_script/austin_kernel_release/kernel/include/linux/dynamic_queue_limits.h"
	.file 113 "/mnt/disk/jenkins2/ci/workspace/chipset_component_FRD_b160_Open_Source/component_code/vendor/huawei/extra/build/build_script/austin_kernel_release/kernel/include/uapi/linux/socket.h"
	.file 114 "/mnt/disk/jenkins2/ci/workspace/chipset_component_FRD_b160_Open_Source/component_code/vendor/huawei/extra/build/build_script/austin_kernel_release/kernel/include/linux/socket.h"
	.file 115 "/mnt/disk/jenkins2/ci/workspace/chipset_component_FRD_b160_Open_Source/component_code/vendor/huawei/extra/build/build_script/austin_kernel_release/kernel/include/uapi/linux/hdlc/ioctl.h"
	.file 116 "/mnt/disk/jenkins2/ci/workspace/chipset_component_FRD_b160_Open_Source/component_code/vendor/huawei/extra/build/build_script/austin_kernel_release/kernel/include/uapi/linux/if.h"
	.file 117 "/mnt/disk/jenkins2/ci/workspace/chipset_component_FRD_b160_Open_Source/component_code/vendor/huawei/extra/build/build_script/austin_kernel_release/kernel/include/linux/list_bl.h"
	.file 118 "/mnt/disk/jenkins2/ci/workspace/chipset_component_FRD_b160_Open_Source/component_code/vendor/huawei/extra/build/build_script/austin_kernel_release/kernel/include/linux/lockref.h"
	.file 119 "/mnt/disk/jenkins2/ci/workspace/chipset_component_FRD_b160_Open_Source/component_code/vendor/huawei/extra/build/build_script/austin_kernel_release/kernel/include/linux/path.h"
	.file 120 "/mnt/disk/jenkins2/ci/workspace/chipset_component_FRD_b160_Open_Source/component_code/vendor/huawei/extra/build/build_script/austin_kernel_release/kernel/include/linux/list_lru.h"
	.file 121 "/mnt/disk/jenkins2/ci/workspace/chipset_component_FRD_b160_Open_Source/component_code/vendor/huawei/extra/build/build_script/austin_kernel_release/kernel/include/linux/radix-tree.h"
	.file 122 "/mnt/disk/jenkins2/ci/workspace/chipset_component_FRD_b160_Open_Source/component_code/vendor/huawei/extra/build/build_script/austin_kernel_release/kernel/include/uapi/linux/fiemap.h"
	.file 123 "/mnt/disk/jenkins2/ci/workspace/chipset_component_FRD_b160_Open_Source/component_code/vendor/huawei/extra/build/build_script/austin_kernel_release/kernel/include/linux/migrate_mode.h"
	.file 124 "/mnt/disk/jenkins2/ci/workspace/chipset_component_FRD_b160_Open_Source/component_code/vendor/huawei/extra/build/build_script/austin_kernel_release/kernel/include/linux/quota.h"
	.file 125 "/mnt/disk/jenkins2/ci/workspace/chipset_component_FRD_b160_Open_Source/component_code/vendor/huawei/extra/build/build_script/austin_kernel_release/kernel/include/linux/projid.h"
	.file 126 "/mnt/disk/jenkins2/ci/workspace/chipset_component_FRD_b160_Open_Source/component_code/vendor/huawei/extra/build/build_script/austin_kernel_release/kernel/include/linux/nfs_fs_i.h"
	.file 127 "/mnt/disk/jenkins2/ci/workspace/chipset_component_FRD_b160_Open_Source/component_code/vendor/huawei/extra/build/build_script/austin_kernel_release/kernel/include/linux/poll.h"
	.file 128 "/mnt/disk/jenkins2/ci/workspace/chipset_component_FRD_b160_Open_Source/component_code/vendor/huawei/extra/build/build_script/austin_kernel_release/kernel/include/linux/stddef.h"
	.file 129 "/mnt/disk/jenkins2/ci/workspace/chipset_component_FRD_b160_Open_Source/component_code/vendor/huawei/extra/build/build_script/austin_kernel_release/kernel/include/uapi/linux/net.h"
	.file 130 "/mnt/disk/jenkins2/ci/workspace/chipset_component_FRD_b160_Open_Source/component_code/vendor/huawei/extra/build/build_script/austin_kernel_release/kernel/include/linux/net.h"
	.file 131 "/mnt/disk/jenkins2/ci/workspace/chipset_component_FRD_b160_Open_Source/component_code/vendor/huawei/extra/build/build_script/austin_kernel_release/kernel/include/linux/dma-attrs.h"
	.file 132 "/mnt/disk/jenkins2/ci/workspace/chipset_component_FRD_b160_Open_Source/component_code/vendor/huawei/extra/build/build_script/austin_kernel_release/kernel/include/linux/dma-direction.h"
	.file 133 "/mnt/disk/jenkins2/ci/workspace/chipset_component_FRD_b160_Open_Source/component_code/vendor/huawei/extra/build/build_script/austin_kernel_release/kernel/include/linux/netdev_features.h"
	.file 134 "/mnt/disk/jenkins2/ci/workspace/chipset_component_FRD_b160_Open_Source/component_code/vendor/huawei/extra/build/build_script/austin_kernel_release/kernel/include/linux/netdevice.h"
	.file 135 "/mnt/disk/jenkins2/ci/workspace/chipset_component_FRD_b160_Open_Source/component_code/vendor/huawei/extra/build/build_script/austin_kernel_release/kernel/include/uapi/linux/if_ether.h"
	.file 136 "/mnt/disk/jenkins2/ci/workspace/chipset_component_FRD_b160_Open_Source/component_code/vendor/huawei/extra/build/build_script/austin_kernel_release/kernel/include/uapi/linux/ethtool.h"
	.file 137 "/mnt/disk/jenkins2/ci/workspace/chipset_component_FRD_b160_Open_Source/component_code/vendor/huawei/extra/build/build_script/austin_kernel_release/kernel/include/linux/ethtool.h"
	.file 138 "/mnt/disk/jenkins2/ci/workspace/chipset_component_FRD_b160_Open_Source/component_code/vendor/huawei/extra/build/build_script/austin_kernel_release/kernel/include/uapi/linux/in6.h"
	.file 139 "/mnt/disk/jenkins2/ci/workspace/chipset_component_FRD_b160_Open_Source/component_code/vendor/huawei/extra/build/build_script/austin_kernel_release/kernel/include/net/flow.h"
	.file 140 "/mnt/disk/jenkins2/ci/workspace/chipset_component_FRD_b160_Open_Source/component_code/vendor/huawei/extra/build/build_script/austin_kernel_release/kernel/include/net/netns/core.h"
	.file 141 "/mnt/disk/jenkins2/ci/workspace/chipset_component_FRD_b160_Open_Source/component_code/vendor/huawei/extra/build/build_script/austin_kernel_release/kernel/include/linux/u64_stats_sync.h"
	.file 142 "/mnt/disk/jenkins2/ci/workspace/chipset_component_FRD_b160_Open_Source/component_code/vendor/huawei/extra/build/build_script/austin_kernel_release/kernel/include/net/snmp.h"
	.file 143 "/mnt/disk/jenkins2/ci/workspace/chipset_component_FRD_b160_Open_Source/component_code/vendor/huawei/extra/build/build_script/austin_kernel_release/kernel/include/net/netns/mib.h"
	.file 144 "/mnt/disk/jenkins2/ci/workspace/chipset_component_FRD_b160_Open_Source/component_code/vendor/huawei/extra/build/build_script/austin_kernel_release/kernel/include/net/netns/unix.h"
	.file 145 "/mnt/disk/jenkins2/ci/workspace/chipset_component_FRD_b160_Open_Source/component_code/vendor/huawei/extra/build/build_script/austin_kernel_release/kernel/include/net/netns/packet.h"
	.file 146 "/mnt/disk/jenkins2/ci/workspace/chipset_component_FRD_b160_Open_Source/component_code/vendor/huawei/extra/build/build_script/austin_kernel_release/kernel/include/net/inet_frag.h"
	.file 147 "/mnt/disk/jenkins2/ci/workspace/chipset_component_FRD_b160_Open_Source/component_code/vendor/huawei/extra/build/build_script/austin_kernel_release/kernel/include/net/netns/ipv4.h"
	.file 148 "/mnt/disk/jenkins2/ci/workspace/chipset_component_FRD_b160_Open_Source/component_code/vendor/huawei/extra/build/build_script/austin_kernel_release/kernel/include/net/dst_ops.h"
	.file 149 "/mnt/disk/jenkins2/ci/workspace/chipset_component_FRD_b160_Open_Source/component_code/vendor/huawei/extra/build/build_script/austin_kernel_release/kernel/include/net/dst.h"
	.file 150 "/mnt/disk/jenkins2/ci/workspace/chipset_component_FRD_b160_Open_Source/component_code/vendor/huawei/extra/build/build_script/austin_kernel_release/kernel/include/net/neighbour.h"
	.file 151 "/mnt/disk/jenkins2/ci/workspace/chipset_component_FRD_b160_Open_Source/component_code/vendor/huawei/extra/build/build_script/austin_kernel_release/kernel/include/net/netns/ipv6.h"
	.file 152 "/mnt/disk/jenkins2/ci/workspace/chipset_component_FRD_b160_Open_Source/component_code/vendor/huawei/extra/build/build_script/austin_kernel_release/kernel/include/uapi/linux/netfilter.h"
	.file 153 "/mnt/disk/jenkins2/ci/workspace/chipset_component_FRD_b160_Open_Source/component_code/vendor/huawei/extra/build/build_script/austin_kernel_release/kernel/include/linux/netfilter.h"
	.file 154 "/mnt/disk/jenkins2/ci/workspace/chipset_component_FRD_b160_Open_Source/component_code/vendor/huawei/extra/build/build_script/austin_kernel_release/kernel/include/uapi/linux/netlink.h"
	.file 155 "/mnt/disk/jenkins2/ci/workspace/chipset_component_FRD_b160_Open_Source/component_code/vendor/huawei/extra/build/build_script/austin_kernel_release/kernel/include/net/netns/netfilter.h"
	.file 156 "/mnt/disk/jenkins2/ci/workspace/chipset_component_FRD_b160_Open_Source/component_code/vendor/huawei/extra/build/build_script/austin_kernel_release/kernel/include/net/netns/x_tables.h"
	.file 157 "/mnt/disk/jenkins2/ci/workspace/chipset_component_FRD_b160_Open_Source/component_code/vendor/huawei/extra/build/build_script/austin_kernel_release/kernel/include/linux/list_nulls.h"
	.file 158 "/mnt/disk/jenkins2/ci/workspace/chipset_component_FRD_b160_Open_Source/component_code/vendor/huawei/extra/build/build_script/austin_kernel_release/kernel/include/uapi/linux/netfilter/nf_conntrack_tcp.h"
	.file 159 "/mnt/disk/jenkins2/ci/workspace/chipset_component_FRD_b160_Open_Source/component_code/vendor/huawei/extra/build/build_script/austin_kernel_release/kernel/include/net/netns/conntrack.h"
	.file 160 "/mnt/disk/jenkins2/ci/workspace/chipset_component_FRD_b160_Open_Source/component_code/vendor/huawei/extra/build/build_script/austin_kernel_release/kernel/include/net/netns/nftables.h"
	.file 161 "/mnt/disk/jenkins2/ci/workspace/chipset_component_FRD_b160_Open_Source/component_code/vendor/huawei/extra/build/build_script/austin_kernel_release/kernel/include/uapi/linux/xfrm.h"
	.file 162 "/mnt/disk/jenkins2/ci/workspace/chipset_component_FRD_b160_Open_Source/component_code/vendor/huawei/extra/build/build_script/austin_kernel_release/kernel/include/linux/interrupt.h"
	.file 163 "/mnt/disk/jenkins2/ci/workspace/chipset_component_FRD_b160_Open_Source/component_code/vendor/huawei/extra/build/build_script/austin_kernel_release/kernel/include/net/flowcache.h"
	.file 164 "/mnt/disk/jenkins2/ci/workspace/chipset_component_FRD_b160_Open_Source/component_code/vendor/huawei/extra/build/build_script/austin_kernel_release/kernel/include/net/netns/xfrm.h"
	.file 165 "/mnt/disk/jenkins2/ci/workspace/chipset_component_FRD_b160_Open_Source/component_code/vendor/huawei/extra/build/build_script/austin_kernel_release/kernel/include/linux/phy.h"
	.file 166 "/mnt/disk/jenkins2/ci/workspace/chipset_component_FRD_b160_Open_Source/component_code/vendor/huawei/extra/build/build_script/austin_kernel_release/kernel/include/linux/percpu-refcount.h"
	.file 167 "/mnt/disk/jenkins2/ci/workspace/chipset_component_FRD_b160_Open_Source/component_code/vendor/huawei/extra/build/build_script/austin_kernel_release/kernel/include/net/request_sock.h"
	.file 168 "/mnt/disk/jenkins2/ci/workspace/chipset_component_FRD_b160_Open_Source/component_code/vendor/huawei/extra/build/build_script/austin_kernel_release/kernel/include/uapi/linux/neighbour.h"
	.file 169 "/mnt/disk/jenkins2/ci/workspace/chipset_component_FRD_b160_Open_Source/component_code/vendor/huawei/extra/build/build_script/austin_kernel_release/kernel/include/uapi/linux/if_link.h"
	.file 170 "/mnt/disk/jenkins2/ci/workspace/chipset_component_FRD_b160_Open_Source/component_code/vendor/huawei/extra/build/build_script/austin_kernel_release/kernel/include/linux/if_link.h"
	.file 171 "/mnt/disk/jenkins2/ci/workspace/chipset_component_FRD_b160_Open_Source/component_code/vendor/huawei/extra/build/build_script/austin_kernel_release/kernel/include/net/rtnetlink.h"
	.file 172 "/mnt/disk/jenkins2/ci/workspace/chipset_component_FRD_b160_Open_Source/component_code/vendor/huawei/extra/build/build_script/austin_kernel_release/kernel/include/uapi/linux/netfilter_ipv4.h"
	.file 173 "/mnt/disk/jenkins2/ci/workspace/chipset_component_FRD_b160_Open_Source/component_code/vendor/huawei/extra/build/build_script/austin_kernel_release/kernel/include/uapi/linux/ip.h"
	.file 174 "/mnt/disk/jenkins2/ci/workspace/chipset_component_FRD_b160_Open_Source/component_code/vendor/huawei/extra/build/build_script/austin_kernel_release/kernel/include/linux/page_counter.h"
	.file 175 "/mnt/disk/jenkins2/ci/workspace/chipset_component_FRD_b160_Open_Source/component_code/vendor/huawei/extra/build/build_script/austin_kernel_release/kernel/include/uapi/linux/filter.h"
	.file 176 "/mnt/disk/jenkins2/ci/workspace/chipset_component_FRD_b160_Open_Source/component_code/vendor/huawei/extra/build/build_script/austin_kernel_release/kernel/include/uapi/linux/bpf.h"
	.file 177 "/mnt/disk/jenkins2/ci/workspace/chipset_component_FRD_b160_Open_Source/component_code/vendor/huawei/extra/build/build_script/austin_kernel_release/kernel/include/linux/filter.h"
	.file 178 "/mnt/disk/jenkins2/ci/workspace/chipset_component_FRD_b160_Open_Source/component_code/vendor/huawei/extra/build/build_script/austin_kernel_release/kernel/include/net/tcp_states.h"
	.file 179 "/mnt/disk/jenkins2/ci/workspace/chipset_component_FRD_b160_Open_Source/component_code/vendor/huawei/extra/build/build_script/austin_kernel_release/kernel/include/net/timewait_sock.h"
	.file 180 "/mnt/disk/jenkins2/ci/workspace/chipset_component_FRD_b160_Open_Source/component_code/vendor/huawei/extra/build/build_script/austin_kernel_release/kernel/include/uapi/linux/tcp.h"
	.file 181 "/mnt/disk/jenkins2/ci/workspace/chipset_component_FRD_b160_Open_Source/component_code/vendor/huawei/extra/build/build_script/austin_kernel_release/kernel/drivers/huawei_platform/net/hw_netfilter/nf_app_dl_monitor.h"
	.file 182 "/mnt/disk/jenkins2/ci/workspace/chipset_component_FRD_b160_Open_Source/component_code/vendor/huawei/extra/build/build_script/austin_kernel_release/kernel/include/asm-generic/preempt.h"
	.file 183 "/mnt/disk/jenkins2/ci/workspace/chipset_component_FRD_b160_Open_Source/component_code/vendor/huawei/extra/build/build_script/austin_kernel_release/kernel/include/linux/tcp.h"
	.file 184 "/mnt/disk/jenkins2/ci/workspace/chipset_component_FRD_b160_Open_Source/component_code/vendor/huawei/extra/build/build_script/austin_kernel_release/kernel/include/linux/ip.h"
	.file 185 "/mnt/disk/jenkins2/ci/workspace/chipset_component_FRD_b160_Open_Source/component_code/vendor/huawei/extra/build/build_script/austin_kernel_release/kernel/arch/arm64/include/asm/cachetype.h"
	.file 186 "/mnt/disk/jenkins2/ci/workspace/chipset_component_FRD_b160_Open_Source/component_code/vendor/huawei/extra/build/build_script/austin_kernel_release/kernel/include/linux/printk.h"
	.file 187 "/mnt/disk/jenkins2/ci/workspace/chipset_component_FRD_b160_Open_Source/component_code/vendor/huawei/extra/build/build_script/austin_kernel_release/kernel/include/linux/kernel.h"
	.file 188 "/mnt/disk/jenkins2/ci/workspace/chipset_component_FRD_b160_Open_Source/component_code/vendor/huawei/extra/build/build_script/austin_kernel_release/kernel/arch/arm64/include/asm/hwcap.h"
	.file 189 "/mnt/disk/jenkins2/ci/workspace/chipset_component_FRD_b160_Open_Source/component_code/vendor/huawei/extra/build/build_script/austin_kernel_release/kernel/include/linux/jiffies.h"
	.file 190 "/mnt/disk/jenkins2/ci/workspace/chipset_component_FRD_b160_Open_Source/component_code/vendor/huawei/extra/build/build_script/austin_kernel_release/kernel/arch/arm64/include/asm/memory.h"
	.file 191 "/mnt/disk/jenkins2/ci/workspace/chipset_component_FRD_b160_Open_Source/component_code/vendor/huawei/extra/build/build_script/austin_kernel_release/kernel/include/linux/highuid.h"
	.file 192 "/mnt/disk/jenkins2/ci/workspace/chipset_component_FRD_b160_Open_Source/component_code/vendor/huawei/extra/build/build_script/austin_kernel_release/kernel/include/asm-generic/percpu.h"
	.file 193 "/mnt/disk/jenkins2/ci/workspace/chipset_component_FRD_b160_Open_Source/component_code/vendor/huawei/extra/build/build_script/austin_kernel_release/kernel/include/linux/debug_locks.h"
	.file 194 "/mnt/disk/jenkins2/ci/workspace/chipset_component_FRD_b160_Open_Source/component_code/vendor/huawei/extra/build/build_script/austin_kernel_release/kernel/include/asm-generic/pgtable.h"
	.file 195 "/mnt/disk/jenkins2/ci/workspace/chipset_component_FRD_b160_Open_Source/component_code/vendor/huawei/extra/build/build_script/austin_kernel_release/kernel/arch/arm64/include/asm/cpufeature.h"
	.file 196 "/mnt/disk/jenkins2/ci/workspace/chipset_component_FRD_b160_Open_Source/component_code/vendor/huawei/extra/build/build_script/austin_kernel_release/kernel/include/linux/slab.h"
	.file 197 "/mnt/disk/jenkins2/ci/workspace/chipset_component_FRD_b160_Open_Source/component_code/vendor/huawei/extra/build/build_script/austin_kernel_release/kernel/arch/arm64/include/../../arm/include/asm/xen/hypervisor.h"
	.file 198 "/mnt/disk/jenkins2/ci/workspace/chipset_component_FRD_b160_Open_Source/component_code/vendor/huawei/extra/build/build_script/austin_kernel_release/kernel/arch/arm64/include/asm/dma-mapping.h"
	.file 199 "/mnt/disk/jenkins2/ci/workspace/chipset_component_FRD_b160_Open_Source/component_code/vendor/huawei/extra/build/build_script/austin_kernel_release/kernel/arch/arm64/include/asm/hardirq.h"
	.file 200 "/mnt/disk/jenkins2/ci/workspace/chipset_component_FRD_b160_Open_Source/component_code/vendor/huawei/extra/build/build_script/austin_kernel_release/kernel/include/linux/cgroup.h"
	.file 201 "/mnt/disk/jenkins2/ci/workspace/chipset_component_FRD_b160_Open_Source/component_code/vendor/huawei/extra/build/build_script/austin_kernel_release/kernel/include/net/inet_connection_sock.h"
	.file 202 "/mnt/disk/jenkins2/ci/workspace/chipset_component_FRD_b160_Open_Source/component_code/vendor/huawei/extra/build/build_script/austin_kernel_release/kernel/include/linux/ctype.h"
	.file 203 "/mnt/disk/jenkins2/ci/workspace/chipset_component_FRD_b160_Open_Source/component_code/vendor/huawei/extra/build/build_script/austin_kernel_release/kernel/drivers/huawei_platform/net/hw_netfilter/nf_ad_filter.h"
	.file 204 "/mnt/disk/jenkins2/ci/workspace/chipset_component_FRD_b160_Open_Source/component_code/vendor/huawei/extra/build/build_script/austin_kernel_release/kernel/include/linux/spinlock_api_smp.h"
	.file 205 "/mnt/disk/jenkins2/ci/workspace/chipset_component_FRD_b160_Open_Source/component_code/vendor/huawei/extra/build/build_script/austin_kernel_release/kernel/arch/arm64/include/asm/string.h"
	.file 206 "/mnt/disk/jenkins2/ci/workspace/chipset_component_FRD_b160_Open_Source/component_code/vendor/huawei/extra/build/build_script/austin_kernel_release/kernel/drivers/huawei_platform/net/hw_netfilter/nf_hw_common.h"
	.section	.note.GNU-stack,"",%progbits
